
build/release/crash2.elf:     file format elf32-littleriscv
build/release/crash2.elf
architecture: riscv:rv32, flags 0x00000112:
EXEC_P, HAS_SYMS, D_PAGED
start address 0x08006200

Program Header:
    LOAD off    0x00000200 vaddr 0x08006200 paddr 0x08006200 align 2**12
         filesz 0x000001b0 memsz 0x000009b0 flags rwx

Sections:
Idx Name              Size      VMA       LMA       File off  Algn  Flags
  0 .text             00000168  08006200  08006200  00000200  2**3  CONTENTS, ALLOC, LOAD, READONLY, CODE
  1 .rodata           00000040  08006368  08006368  00000368  2**3  CONTENTS, ALLOC, LOAD, READONLY, DATA
  2 .data             00000008  080063a8  080063a8  000003a8  2**3  CONTENTS, ALLOC, LOAD, DATA
  3 .heap             00000800  080063b0  080063b0  000003b0  2**3  ALLOC
  4 .riscv.attributes 0000001c  00000000  00000000  000003b0  2**0  CONTENTS, READONLY
  5 .comment          00000028  00000000  00000000  000003cc  2**0  CONTENTS, READONLY
SYMBOL TABLE:
08006200 l    d  .text	00000000 .text
08006368 l    d  .rodata	00000000 .rodata
080063a8 l    d  .data	00000000 .data
080063b0 l    d  .heap	00000000 .heap
00000000 l    d  .riscv.attributes	00000000 .riscv.attributes
00000000 l    d  .comment	00000000 .comment
00000000 l    df *ABS*	00000000 servers.c
00000000 l    df *ABS*	00000000 crash2.c
080063ac g     O .data	00000004 earth
00000800 g       *ABS*	00000000 __heap_size
080063a8 g     O .data	00000004 grass
0800628c g     F .text	000000dc memset
0800623c g     F .text	00000050 main
08006200 g       .text	00000000 _enter
08008000 g       *ABS*	00000000 __heap_end
080063b0 g       .heap	00000000 __heap_start
08006210 g     F .text	0000002c exit



Disassembly of section .text:

08006200 <_enter>:
_enter():
 8006200:	00052503          	lw	a0,0(a0)
 8006204:	80002137          	lui	sp,0x80002
 8006208:	034000ef          	jal	ra,800623c <main>
 800620c:	004000ef          	jal	ra,8006210 <exit>

08006210 <exit>:
exit():
 8006210:	fe010113          	addi	sp,sp,-32 # 80001fe0 <__heap_end+0x77ff9fe0>
 8006214:	00112e23          	sw	ra,28(sp)
 8006218:	00812c23          	sw	s0,24(sp)
 800621c:	02010413          	addi	s0,sp,32
 8006220:	fea42623          	sw	a0,-20(s0)
 8006224:	080067b7          	lui	a5,0x8006
 8006228:	3a87a783          	lw	a5,936(a5) # 80063a8 <grass>
 800622c:	0a47a783          	lw	a5,164(a5)
 8006230:	fec42503          	lw	a0,-20(s0)
 8006234:	000780e7          	jalr	a5
 8006238:	0000006f          	j	8006238 <exit+0x28>

0800623c <main>:
main():
 800623c:	ff010113          	addi	sp,sp,-16
 8006240:	00112623          	sw	ra,12(sp)
 8006244:	00812423          	sw	s0,8(sp)
 8006248:	01010413          	addi	s0,sp,16
 800624c:	00018637          	lui	a2,0x18
 8006250:	00000593          	li	a1,0
 8006254:	80008537          	lui	a0,0x80008
 8006258:	034000ef          	jal	ra,800628c <memset>
 800625c:	080067b7          	lui	a5,0x8006
 8006260:	3ac7a783          	lw	a5,940(a5) # 80063ac <earth>
 8006264:	0407a703          	lw	a4,64(a5)
 8006268:	080067b7          	lui	a5,0x8006
 800626c:	36878513          	addi	a0,a5,872 # 8006368 <memset+0xdc>
 8006270:	000700e7          	jalr	a4
 8006274:	00000793          	li	a5,0
 8006278:	00078513          	mv	a0,a5
 800627c:	00c12083          	lw	ra,12(sp)
 8006280:	00812403          	lw	s0,8(sp)
 8006284:	01010113          	addi	sp,sp,16
 8006288:	00008067          	ret

0800628c <memset>:
memset():
 800628c:	00f00313          	li	t1,15
 8006290:	00050713          	mv	a4,a0
 8006294:	02c37e63          	bgeu	t1,a2,80062d0 <memset+0x44>
 8006298:	00f77793          	andi	a5,a4,15
 800629c:	0a079063          	bnez	a5,800633c <memset+0xb0>
 80062a0:	08059263          	bnez	a1,8006324 <memset+0x98>
 80062a4:	ff067693          	andi	a3,a2,-16
 80062a8:	00f67613          	andi	a2,a2,15
 80062ac:	00e686b3          	add	a3,a3,a4
 80062b0:	00b72023          	sw	a1,0(a4)
 80062b4:	00b72223          	sw	a1,4(a4)
 80062b8:	00b72423          	sw	a1,8(a4)
 80062bc:	00b72623          	sw	a1,12(a4)
 80062c0:	01070713          	addi	a4,a4,16
 80062c4:	fed766e3          	bltu	a4,a3,80062b0 <memset+0x24>
 80062c8:	00061463          	bnez	a2,80062d0 <memset+0x44>
 80062cc:	00008067          	ret
 80062d0:	40c306b3          	sub	a3,t1,a2
 80062d4:	00269693          	slli	a3,a3,0x2
 80062d8:	00000297          	auipc	t0,0x0
 80062dc:	005686b3          	add	a3,a3,t0
 80062e0:	00c68067          	jr	12(a3)
 80062e4:	00b70723          	sb	a1,14(a4)
 80062e8:	00b706a3          	sb	a1,13(a4)
 80062ec:	00b70623          	sb	a1,12(a4)
 80062f0:	00b705a3          	sb	a1,11(a4)
 80062f4:	00b70523          	sb	a1,10(a4)
 80062f8:	00b704a3          	sb	a1,9(a4)
 80062fc:	00b70423          	sb	a1,8(a4)
 8006300:	00b703a3          	sb	a1,7(a4)
 8006304:	00b70323          	sb	a1,6(a4)
 8006308:	00b702a3          	sb	a1,5(a4)
 800630c:	00b70223          	sb	a1,4(a4)
 8006310:	00b701a3          	sb	a1,3(a4)
 8006314:	00b70123          	sb	a1,2(a4)
 8006318:	00b700a3          	sb	a1,1(a4)
 800631c:	00b70023          	sb	a1,0(a4)
 8006320:	00008067          	ret
 8006324:	0ff5f593          	andi	a1,a1,255
 8006328:	00859693          	slli	a3,a1,0x8
 800632c:	00d5e5b3          	or	a1,a1,a3
 8006330:	01059693          	slli	a3,a1,0x10
 8006334:	00d5e5b3          	or	a1,a1,a3
 8006338:	f6dff06f          	j	80062a4 <memset+0x18>
 800633c:	00279693          	slli	a3,a5,0x2
 8006340:	00000297          	auipc	t0,0x0
 8006344:	005686b3          	add	a3,a3,t0
 8006348:	00008293          	mv	t0,ra
 800634c:	fa0680e7          	jalr	-96(a3)
 8006350:	00028093          	mv	ra,t0
 8006354:	ff078793          	addi	a5,a5,-16
 8006358:	40f70733          	sub	a4,a4,a5
 800635c:	00f60633          	add	a2,a2,a5
 8006360:	f6c378e3          	bgeu	t1,a2,80062d0 <memset+0x44>
 8006364:	f3dff06f          	j	80062a0 <memset+0x14>
