
build/release/sys_proc.elf:     file format elf32-littleriscv
build/release/sys_proc.elf
architecture: riscv:rv32, flags 0x00000112:
EXEC_P, HAS_SYMS, D_PAGED
start address 0x08006200

Program Header:
    LOAD off    0x00000200 vaddr 0x08006200 paddr 0x08006200 align 2**12
         filesz 0x00001aa4 memsz 0x000026b8 flags rwx

Sections:
Idx Name              Size      VMA       LMA       File off  Algn  Flags
  0 .text             00001344  08006200  08006200  00000200  2**3  CONTENTS, ALLOC, LOAD, READONLY, CODE
  1 .rodata           00000318  08007548  08007548  00001548  2**3  CONTENTS, ALLOC, LOAD, READONLY, DATA
  2 .data             00000444  08007860  08007860  00001860  2**3  CONTENTS, ALLOC, LOAD, DATA
  3 .bss              00000410  08007ca8  08007ca8  00001ca4  2**3  ALLOC
  4 .heap             00000800  080080b8  080080b8  00001ca4  2**3  ALLOC
  5 .riscv.attributes 0000001c  00000000  00000000  00001ca4  2**0  CONTENTS, READONLY
  6 .comment          00000028  00000000  00000000  00001cc0  2**0  CONTENTS, READONLY
  7 .debug_line       00000202  00000000  00000000  00001ce8  2**0  CONTENTS, READONLY, DEBUGGING
  8 .debug_info       0000004c  00000000  00000000  00001eea  2**0  CONTENTS, READONLY, DEBUGGING
  9 .debug_abbrev     00000028  00000000  00000000  00001f36  2**0  CONTENTS, READONLY, DEBUGGING
 10 .debug_aranges    00000040  00000000  00000000  00001f60  2**3  CONTENTS, READONLY, DEBUGGING
 11 .debug_str        00000141  00000000  00000000  00001fa0  2**0  CONTENTS, READONLY, DEBUGGING
SYMBOL TABLE:
08006200 l    d  .text	00000000 .text
08007548 l    d  .rodata	00000000 .rodata
08007860 l    d  .data	00000000 .data
08007ca8 l    d  .bss	00000000 .bss
080080b8 l    d  .heap	00000000 .heap
00000000 l    d  .riscv.attributes	00000000 .riscv.attributes
00000000 l    d  .comment	00000000 .comment
00000000 l    d  .debug_line	00000000 .debug_line
00000000 l    d  .debug_info	00000000 .debug_info
00000000 l    d  .debug_abbrev	00000000 .debug_abbrev
00000000 l    d  .debug_aranges	00000000 .debug_aranges
00000000 l    d  .debug_str	00000000 .debug_str
00000000 l    df *ABS*	00000000 elf.c
08006210 l     F .text	00000110 load_grass
08006320 l     F .text	00000384 load_app
00000000 l    df *ABS*	00000000 servers.c
08007ca8 l     O .bss	00000004 sender
08007cb8 l     O .bss	00000400 buf
00000000 l    df *ABS*	00000000 sys_proc.c
08007cac l     O .bss	00000004 app_ino
08007cb0 l     O .bss	00000004 app_pid
08006e5c l     F .text	000000c8 sys_spawn
08006c90 l     F .text	00000134 app_spawn
08006dc4 l     F .text	0000003c app_kill
08006c48 l     F .text	00000048 app_read
08007cb4 l     O .bss	00000004 sys_proc_base
08006e00 l     F .text	0000005c sys_proc_read
00000000 l    df *ABS*	00000000 atoi.c
00000000 l    df *ABS*	00000000 memcpy.c
00000000 l    df *ABS*	00000000 strcpy.c
00000000 l    df *ABS*	00000000 strtol.c
080071e4 l     F .text	0000024c _strtol_l.isra.0
00000000 l    df *ABS*	00000000 ctype_.c
00000000 l    df *ABS*	00000000 impure.c
08007870 l     O .data	00000428 impure_data
08007134 g     F .text	000000b0 strcpy
08006f3c g     F .text	0000011c memcpy
08007498 g     F .text	00000048 .hidden __udivsi3
08007c9c g     O .data	00000004 earth
08007434 g     F .text	0000001c strtol_l
08007450 g     F .text	0000001c strtol
00000800 g       *ABS*	00000000 __heap_size
080074e0 g     F .text	00000010 .hidden __umodsi3
08006f30 g     F .text	0000000c _atoi_r
08006890 g     F .text	000000f0 file_read
08007c98 g     O .data	00000004 grass
0800746c g     F .text	00000024 .hidden __mulsi3
08007860 g     O .data	00000010 sysproc_names
08007058 g     F .text	000000dc memset
08006980 g     F .text	000002c8 main
08007430 g     F .text	00000004 _strtol_r
08007490 g     F .text	00000084 .hidden __divsi3
08006200 g       .text	00000000 _enter
08008000 g       *ABS*	00000000 __heap_end
08007ca0 g     O .data	00000004 _impure_ptr
080080b8 g       .heap	00000000 __heap_start
08006780 g     F .text	0000002c exit
08007514 g     F .text	00000030 .hidden __modsi3
08006f24 g     F .text	0000000c atoi
08007758 g     O .rodata	00000101 _ctype_
080067ac g     F .text	000000e4 dir_lookup
080066a4 g     F .text	000000dc elf_load



Disassembly of section .text:

08006200 <_enter>:
_enter():
 8006200:	00052503          	lw	a0,0(a0)
 8006204:	80002137          	lui	sp,0x80002
 8006208:	778000ef          	jal	ra,8006980 <main>
 800620c:	574000ef          	jal	ra,8006780 <exit>

08006210 <load_grass>:
load_grass():
 8006210:	fd010113          	addi	sp,sp,-48 # 80001fd0 <__heap_start+0x77ff9f18>
 8006214:	02112623          	sw	ra,44(sp)
 8006218:	02812423          	sw	s0,40(sp)
 800621c:	03010413          	addi	s0,sp,48
 8006220:	fca42e23          	sw	a0,-36(s0)
 8006224:	fcb42c23          	sw	a1,-40(s0)
 8006228:	080087b7          	lui	a5,0x8008
 800622c:	c9c7a783          	lw	a5,-868(a5) # 8007c9c <earth>
 8006230:	0387a703          	lw	a4,56(a5)
 8006234:	fd842783          	lw	a5,-40(s0)
 8006238:	0107a783          	lw	a5,16(a5)
 800623c:	00078593          	mv	a1,a5
 8006240:	080077b7          	lui	a5,0x8007
 8006244:	54878513          	addi	a0,a5,1352 # 8007548 <__modsi3+0x34>
 8006248:	000700e7          	jalr	a4
 800624c:	080087b7          	lui	a5,0x8008
 8006250:	c9c7a783          	lw	a5,-868(a5) # 8007c9c <earth>
 8006254:	0387a703          	lw	a4,56(a5)
 8006258:	fd842783          	lw	a5,-40(s0)
 800625c:	0147a783          	lw	a5,20(a5)
 8006260:	00078593          	mv	a1,a5
 8006264:	080077b7          	lui	a5,0x8007
 8006268:	57078513          	addi	a0,a5,1392 # 8007570 <__modsi3+0x5c>
 800626c:	000700e7          	jalr	a4
 8006270:	080037b7          	lui	a5,0x8003
 8006274:	80078793          	addi	a5,a5,-2048 # 8002800 <__heap_size+0x8002000>
 8006278:	fef42223          	sw	a5,-28(s0)
 800627c:	fd842783          	lw	a5,-40(s0)
 8006280:	0047a783          	lw	a5,4(a5)
 8006284:	0097d793          	srli	a5,a5,0x9
 8006288:	fef42623          	sw	a5,-20(s0)
 800628c:	fe042423          	sw	zero,-24(s0)
 8006290:	0380006f          	j	80062c8 <load_grass+0xb8>
 8006294:	fec42783          	lw	a5,-20(s0)
 8006298:	00178713          	addi	a4,a5,1
 800629c:	fee42623          	sw	a4,-20(s0)
 80062a0:	fe842703          	lw	a4,-24(s0)
 80062a4:	fe442683          	lw	a3,-28(s0)
 80062a8:	00e68733          	add	a4,a3,a4
 80062ac:	fdc42683          	lw	a3,-36(s0)
 80062b0:	00070593          	mv	a1,a4
 80062b4:	00078513          	mv	a0,a5
 80062b8:	000680e7          	jalr	a3
 80062bc:	fe842783          	lw	a5,-24(s0)
 80062c0:	20078793          	addi	a5,a5,512
 80062c4:	fef42423          	sw	a5,-24(s0)
 80062c8:	fd842783          	lw	a5,-40(s0)
 80062cc:	0107a703          	lw	a4,16(a5)
 80062d0:	fe842783          	lw	a5,-24(s0)
 80062d4:	fce7e0e3          	bltu	a5,a4,8006294 <load_grass+0x84>
 80062d8:	fd842783          	lw	a5,-40(s0)
 80062dc:	0107a783          	lw	a5,16(a5)
 80062e0:	fe442703          	lw	a4,-28(s0)
 80062e4:	00f706b3          	add	a3,a4,a5
 80062e8:	fd842783          	lw	a5,-40(s0)
 80062ec:	0107a783          	lw	a5,16(a5)
 80062f0:	00003737          	lui	a4,0x3
 80062f4:	30070713          	addi	a4,a4,768 # 3300 <__heap_size+0x2b00>
 80062f8:	40f707b3          	sub	a5,a4,a5
 80062fc:	00078613          	mv	a2,a5
 8006300:	00000593          	li	a1,0
 8006304:	00068513          	mv	a0,a3
 8006308:	551000ef          	jal	ra,8007058 <memset>
 800630c:	00000013          	nop
 8006310:	02c12083          	lw	ra,44(sp)
 8006314:	02812403          	lw	s0,40(sp)
 8006318:	03010113          	addi	sp,sp,48
 800631c:	00008067          	ret

08006320 <load_app>:
load_app():
 8006320:	fa010113          	addi	sp,sp,-96
 8006324:	04112e23          	sw	ra,92(sp)
 8006328:	04812c23          	sw	s0,88(sp)
 800632c:	06010413          	addi	s0,sp,96
 8006330:	faa42e23          	sw	a0,-68(s0)
 8006334:	fab42c23          	sw	a1,-72(s0)
 8006338:	fac42a23          	sw	a2,-76(s0)
 800633c:	fad42823          	sw	a3,-80(s0)
 8006340:	fae42623          	sw	a4,-84(s0)
 8006344:	fbc42703          	lw	a4,-68(s0)
 8006348:	00400793          	li	a5,4
 800634c:	04e7c663          	blt	a5,a4,8006398 <load_app+0x78>
 8006350:	080087b7          	lui	a5,0x8008
 8006354:	c9c7a783          	lw	a5,-868(a5) # 8007c9c <earth>
 8006358:	0387a703          	lw	a4,56(a5)
 800635c:	fac42783          	lw	a5,-84(s0)
 8006360:	0107a783          	lw	a5,16(a5)
 8006364:	00078593          	mv	a1,a5
 8006368:	080077b7          	lui	a5,0x8007
 800636c:	59878513          	addi	a0,a5,1432 # 8007598 <__modsi3+0x84>
 8006370:	000700e7          	jalr	a4
 8006374:	080087b7          	lui	a5,0x8008
 8006378:	c9c7a783          	lw	a5,-868(a5) # 8007c9c <earth>
 800637c:	0387a703          	lw	a4,56(a5)
 8006380:	fac42783          	lw	a5,-84(s0)
 8006384:	0147a783          	lw	a5,20(a5)
 8006388:	00078593          	mv	a1,a5
 800638c:	080077b7          	lui	a5,0x8007
 8006390:	5b478513          	addi	a0,a5,1460 # 80075b4 <__modsi3+0xa0>
 8006394:	000700e7          	jalr	a4
 8006398:	fac42783          	lw	a5,-84(s0)
 800639c:	0047a783          	lw	a5,4(a5)
 80063a0:	0097d793          	srli	a5,a5,0x9
 80063a4:	fef42623          	sw	a5,-20(s0)
 80063a8:	000087b7          	lui	a5,0x8
 80063ac:	00678793          	addi	a5,a5,6 # 8006 <__heap_size+0x7806>
 80063b0:	fef42423          	sw	a5,-24(s0)
 80063b4:	000807b7          	lui	a5,0x80
 80063b8:	fcf42e23          	sw	a5,-36(s0)
 80063bc:	fe042223          	sw	zero,-28(s0)
 80063c0:	0b80006f          	j	8006478 <load_app+0x158>
 80063c4:	fe442703          	lw	a4,-28(s0)
 80063c8:	000017b7          	lui	a5,0x1
 80063cc:	fff78793          	addi	a5,a5,-1 # fff <__heap_size+0x7ff>
 80063d0:	00f777b3          	and	a5,a4,a5
 80063d4:	04079a63          	bnez	a5,8006428 <load_app+0x108>
 80063d8:	080087b7          	lui	a5,0x8008
 80063dc:	c9c7a783          	lw	a5,-868(a5) # 8007c9c <earth>
 80063e0:	00c7a683          	lw	a3,12(a5)
 80063e4:	fc440713          	addi	a4,s0,-60
 80063e8:	fc040793          	addi	a5,s0,-64
 80063ec:	00070593          	mv	a1,a4
 80063f0:	00078513          	mv	a0,a5
 80063f4:	000680e7          	jalr	a3
 80063f8:	080087b7          	lui	a5,0x8008
 80063fc:	c9c7a783          	lw	a5,-868(a5) # 8007c9c <earth>
 8006400:	0147a683          	lw	a3,20(a5)
 8006404:	fe842783          	lw	a5,-24(s0)
 8006408:	00178713          	addi	a4,a5,1
 800640c:	fee42423          	sw	a4,-24(s0)
 8006410:	00078713          	mv	a4,a5
 8006414:	fc042783          	lw	a5,-64(s0)
 8006418:	00078613          	mv	a2,a5
 800641c:	00070593          	mv	a1,a4
 8006420:	fbc42503          	lw	a0,-68(s0)
 8006424:	000680e7          	jalr	a3
 8006428:	fec42683          	lw	a3,-20(s0)
 800642c:	00168793          	addi	a5,a3,1
 8006430:	fef42623          	sw	a5,-20(s0)
 8006434:	fc442603          	lw	a2,-60(s0)
 8006438:	fe442703          	lw	a4,-28(s0)
 800643c:	41f75793          	srai	a5,a4,0x1f
 8006440:	0147d793          	srli	a5,a5,0x14
 8006444:	00f705b3          	add	a1,a4,a5
 8006448:	00001737          	lui	a4,0x1
 800644c:	fff70713          	addi	a4,a4,-1 # fff <__heap_size+0x7ff>
 8006450:	00e5f733          	and	a4,a1,a4
 8006454:	40f707b3          	sub	a5,a4,a5
 8006458:	00f607b3          	add	a5,a2,a5
 800645c:	fb842703          	lw	a4,-72(s0)
 8006460:	00078593          	mv	a1,a5
 8006464:	00068513          	mv	a0,a3
 8006468:	000700e7          	jalr	a4
 800646c:	fe442783          	lw	a5,-28(s0)
 8006470:	20078793          	addi	a5,a5,512
 8006474:	fef42223          	sw	a5,-28(s0)
 8006478:	fac42783          	lw	a5,-84(s0)
 800647c:	0107a703          	lw	a4,16(a5)
 8006480:	fe442783          	lw	a5,-28(s0)
 8006484:	f4e7e0e3          	bltu	a5,a4,80063c4 <load_app+0xa4>
 8006488:	fac42783          	lw	a5,-84(s0)
 800648c:	0107a783          	lw	a5,16(a5)
 8006490:	00078713          	mv	a4,a5
 8006494:	000017b7          	lui	a5,0x1
 8006498:	fff78793          	addi	a5,a5,-1 # fff <__heap_size+0x7ff>
 800649c:	00f777b3          	and	a5,a4,a5
 80064a0:	fcf42c23          	sw	a5,-40(s0)
 80064a4:	00001737          	lui	a4,0x1
 80064a8:	fd842783          	lw	a5,-40(s0)
 80064ac:	40f707b3          	sub	a5,a4,a5
 80064b0:	fcf42a23          	sw	a5,-44(s0)
 80064b4:	fd842783          	lw	a5,-40(s0)
 80064b8:	08078663          	beqz	a5,8006544 <load_app+0x224>
 80064bc:	fc442703          	lw	a4,-60(s0)
 80064c0:	fd842783          	lw	a5,-40(s0)
 80064c4:	00f707b3          	add	a5,a4,a5
 80064c8:	fd442703          	lw	a4,-44(s0)
 80064cc:	00070613          	mv	a2,a4
 80064d0:	00000593          	li	a1,0
 80064d4:	00078513          	mv	a0,a5
 80064d8:	381000ef          	jal	ra,8007058 <memset>
 80064dc:	0680006f          	j	8006544 <load_app+0x224>
 80064e0:	080087b7          	lui	a5,0x8008
 80064e4:	c9c7a783          	lw	a5,-868(a5) # 8007c9c <earth>
 80064e8:	00c7a683          	lw	a3,12(a5)
 80064ec:	fc440713          	addi	a4,s0,-60
 80064f0:	fc040793          	addi	a5,s0,-64
 80064f4:	00070593          	mv	a1,a4
 80064f8:	00078513          	mv	a0,a5
 80064fc:	000680e7          	jalr	a3
 8006500:	080087b7          	lui	a5,0x8008
 8006504:	c9c7a783          	lw	a5,-868(a5) # 8007c9c <earth>
 8006508:	0147a683          	lw	a3,20(a5)
 800650c:	fe842783          	lw	a5,-24(s0)
 8006510:	00178713          	addi	a4,a5,1
 8006514:	fee42423          	sw	a4,-24(s0)
 8006518:	00078713          	mv	a4,a5
 800651c:	fc042783          	lw	a5,-64(s0)
 8006520:	00078613          	mv	a2,a5
 8006524:	00070593          	mv	a1,a4
 8006528:	fbc42503          	lw	a0,-68(s0)
 800652c:	000680e7          	jalr	a3
 8006530:	fc442783          	lw	a5,-60(s0)
 8006534:	00001637          	lui	a2,0x1
 8006538:	00000593          	li	a1,0
 800653c:	00078513          	mv	a0,a5
 8006540:	319000ef          	jal	ra,8007058 <memset>
 8006544:	fe842703          	lw	a4,-24(s0)
 8006548:	000087b7          	lui	a5,0x8
 800654c:	00978793          	addi	a5,a5,9 # 8009 <__heap_size+0x7809>
 8006550:	f8e7f8e3          	bgeu	a5,a4,80064e0 <load_app+0x1c0>
 8006554:	080087b7          	lui	a5,0x8008
 8006558:	c9c7a783          	lw	a5,-868(a5) # 8007c9c <earth>
 800655c:	00c7a683          	lw	a3,12(a5)
 8006560:	fc440713          	addi	a4,s0,-60
 8006564:	fc040793          	addi	a5,s0,-64
 8006568:	00070593          	mv	a1,a4
 800656c:	00078513          	mv	a0,a5
 8006570:	000680e7          	jalr	a3
 8006574:	080087b7          	lui	a5,0x8008
 8006578:	c9c7a783          	lw	a5,-868(a5) # 8007c9c <earth>
 800657c:	0147a683          	lw	a3,20(a5)
 8006580:	fdc42783          	lw	a5,-36(s0)
 8006584:	00178713          	addi	a4,a5,1
 8006588:	fce42e23          	sw	a4,-36(s0)
 800658c:	00078713          	mv	a4,a5
 8006590:	fc042783          	lw	a5,-64(s0)
 8006594:	00078613          	mv	a2,a5
 8006598:	00070593          	mv	a1,a4
 800659c:	fbc42503          	lw	a0,-68(s0)
 80065a0:	000680e7          	jalr	a3
 80065a4:	fc442783          	lw	a5,-60(s0)
 80065a8:	fcf42823          	sw	a5,-48(s0)
 80065ac:	fd042783          	lw	a5,-48(s0)
 80065b0:	00478793          	addi	a5,a5,4
 80065b4:	fcf42623          	sw	a5,-52(s0)
 80065b8:	fcc42783          	lw	a5,-52(s0)
 80065bc:	04078793          	addi	a5,a5,64
 80065c0:	fcf42423          	sw	a5,-56(s0)
 80065c4:	fd042783          	lw	a5,-48(s0)
 80065c8:	fb442703          	lw	a4,-76(s0)
 80065cc:	00e7a023          	sw	a4,0(a5)
 80065d0:	fb042783          	lw	a5,-80(s0)
 80065d4:	00078e63          	beqz	a5,80065f0 <load_app+0x2d0>
 80065d8:	fb442783          	lw	a5,-76(s0)
 80065dc:	00579793          	slli	a5,a5,0x5
 80065e0:	00078613          	mv	a2,a5
 80065e4:	fb042583          	lw	a1,-80(s0)
 80065e8:	fc842503          	lw	a0,-56(s0)
 80065ec:	151000ef          	jal	ra,8006f3c <memcpy>
 80065f0:	fe042023          	sw	zero,-32(s0)
 80065f4:	0400006f          	j	8006634 <load_app+0x314>
 80065f8:	fe042783          	lw	a5,-32(s0)
 80065fc:	00579793          	slli	a5,a5,0x5
 8006600:	00078713          	mv	a4,a5
 8006604:	800007b7          	lui	a5,0x80000
 8006608:	04478793          	addi	a5,a5,68 # 80000044 <__heap_start+0x77ff7f8c>
 800660c:	00f706b3          	add	a3,a4,a5
 8006610:	fe042783          	lw	a5,-32(s0)
 8006614:	00279793          	slli	a5,a5,0x2
 8006618:	fcc42703          	lw	a4,-52(s0)
 800661c:	00f707b3          	add	a5,a4,a5
 8006620:	00068713          	mv	a4,a3
 8006624:	00e7a023          	sw	a4,0(a5)
 8006628:	fe042783          	lw	a5,-32(s0)
 800662c:	00178793          	addi	a5,a5,1
 8006630:	fef42023          	sw	a5,-32(s0)
 8006634:	fe042703          	lw	a4,-32(s0)
 8006638:	fb442783          	lw	a5,-76(s0)
 800663c:	faf74ee3          	blt	a4,a5,80065f8 <load_app+0x2d8>
 8006640:	080087b7          	lui	a5,0x8008
 8006644:	c9c7a783          	lw	a5,-868(a5) # 8007c9c <earth>
 8006648:	00c7a683          	lw	a3,12(a5)
 800664c:	fc440713          	addi	a4,s0,-60
 8006650:	fc040793          	addi	a5,s0,-64
 8006654:	00070593          	mv	a1,a4
 8006658:	00078513          	mv	a0,a5
 800665c:	000680e7          	jalr	a3
 8006660:	080087b7          	lui	a5,0x8008
 8006664:	c9c7a783          	lw	a5,-868(a5) # 8007c9c <earth>
 8006668:	0147a683          	lw	a3,20(a5)
 800666c:	fdc42783          	lw	a5,-36(s0)
 8006670:	00178713          	addi	a4,a5,1
 8006674:	fce42e23          	sw	a4,-36(s0)
 8006678:	00078713          	mv	a4,a5
 800667c:	fc042783          	lw	a5,-64(s0)
 8006680:	00078613          	mv	a2,a5
 8006684:	00070593          	mv	a1,a4
 8006688:	fbc42503          	lw	a0,-68(s0)
 800668c:	000680e7          	jalr	a3
 8006690:	00000013          	nop
 8006694:	05c12083          	lw	ra,92(sp)
 8006698:	05812403          	lw	s0,88(sp)
 800669c:	06010113          	addi	sp,sp,96
 80066a0:	00008067          	ret

080066a4 <elf_load>:
elf_load():
 80066a4:	dd010113          	addi	sp,sp,-560
 80066a8:	22112623          	sw	ra,556(sp)
 80066ac:	22812423          	sw	s0,552(sp)
 80066b0:	23010413          	addi	s0,sp,560
 80066b4:	dca42e23          	sw	a0,-548(s0)
 80066b8:	dcb42c23          	sw	a1,-552(s0)
 80066bc:	dcc42a23          	sw	a2,-556(s0)
 80066c0:	dcd42823          	sw	a3,-560(s0)
 80066c4:	de840793          	addi	a5,s0,-536
 80066c8:	dd842703          	lw	a4,-552(s0)
 80066cc:	00078593          	mv	a1,a5
 80066d0:	00000513          	li	a0,0
 80066d4:	000700e7          	jalr	a4 # 1000 <__heap_size+0x800>
 80066d8:	de840793          	addi	a5,s0,-536
 80066dc:	fef42623          	sw	a5,-20(s0)
 80066e0:	fec42783          	lw	a5,-20(s0)
 80066e4:	01c7a783          	lw	a5,28(a5)
 80066e8:	de840713          	addi	a4,s0,-536
 80066ec:	00f707b3          	add	a5,a4,a5
 80066f0:	fef42423          	sw	a5,-24(s0)
 80066f4:	fe842783          	lw	a5,-24(s0)
 80066f8:	0087a703          	lw	a4,8(a5)
 80066fc:	080037b7          	lui	a5,0x8003
 8006700:	80078793          	addi	a5,a5,-2048 # 8002800 <__heap_size+0x8002000>
 8006704:	00f71a63          	bne	a4,a5,8006718 <elf_load+0x74>
 8006708:	fe842583          	lw	a1,-24(s0)
 800670c:	dd842503          	lw	a0,-552(s0)
 8006710:	b01ff0ef          	jal	ra,8006210 <load_grass>
 8006714:	0580006f          	j	800676c <elf_load+0xc8>
 8006718:	fe842783          	lw	a5,-24(s0)
 800671c:	0087a703          	lw	a4,8(a5)
 8006720:	080067b7          	lui	a5,0x8006
 8006724:	20078793          	addi	a5,a5,512 # 8006200 <_enter>
 8006728:	02f71063          	bne	a4,a5,8006748 <elf_load+0xa4>
 800672c:	fe842703          	lw	a4,-24(s0)
 8006730:	dd042683          	lw	a3,-560(s0)
 8006734:	dd442603          	lw	a2,-556(s0)
 8006738:	dd842583          	lw	a1,-552(s0)
 800673c:	ddc42503          	lw	a0,-548(s0)
 8006740:	be1ff0ef          	jal	ra,8006320 <load_app>
 8006744:	0280006f          	j	800676c <elf_load+0xc8>
 8006748:	080087b7          	lui	a5,0x8008
 800674c:	c9c7a783          	lw	a5,-868(a5) # 8007c9c <earth>
 8006750:	03c7a703          	lw	a4,60(a5)
 8006754:	fe842783          	lw	a5,-24(s0)
 8006758:	0087a783          	lw	a5,8(a5)
 800675c:	00078593          	mv	a1,a5
 8006760:	080077b7          	lui	a5,0x8007
 8006764:	5d478513          	addi	a0,a5,1492 # 80075d4 <__modsi3+0xc0>
 8006768:	000700e7          	jalr	a4
 800676c:	00000013          	nop
 8006770:	22c12083          	lw	ra,556(sp)
 8006774:	22812403          	lw	s0,552(sp)
 8006778:	23010113          	addi	sp,sp,560
 800677c:	00008067          	ret

08006780 <exit>:
exit():
 8006780:	fe010113          	addi	sp,sp,-32
 8006784:	00112e23          	sw	ra,28(sp)
 8006788:	00812c23          	sw	s0,24(sp)
 800678c:	02010413          	addi	s0,sp,32
 8006790:	fea42623          	sw	a0,-20(s0)
 8006794:	080087b7          	lui	a5,0x8008
 8006798:	c987a783          	lw	a5,-872(a5) # 8007c98 <grass>
 800679c:	0a47a783          	lw	a5,164(a5)
 80067a0:	fec42503          	lw	a0,-20(s0)
 80067a4:	000780e7          	jalr	a5
 80067a8:	0000006f          	j	80067a8 <exit+0x28>

080067ac <dir_lookup>:
dir_lookup():
 80067ac:	fb010113          	addi	sp,sp,-80
 80067b0:	04112623          	sw	ra,76(sp)
 80067b4:	04812423          	sw	s0,72(sp)
 80067b8:	05010413          	addi	s0,sp,80
 80067bc:	faa42e23          	sw	a0,-68(s0)
 80067c0:	fab42c23          	sw	a1,-72(s0)
 80067c4:	00100793          	li	a5,1
 80067c8:	fcf42223          	sw	a5,-60(s0)
 80067cc:	fbc42783          	lw	a5,-68(s0)
 80067d0:	fcf42423          	sw	a5,-56(s0)
 80067d4:	fc440793          	addi	a5,s0,-60
 80067d8:	00878793          	addi	a5,a5,8
 80067dc:	fb842583          	lw	a1,-72(s0)
 80067e0:	00078513          	mv	a0,a5
 80067e4:	151000ef          	jal	ra,8007134 <strcpy>
 80067e8:	080087b7          	lui	a5,0x8008
 80067ec:	c987a783          	lw	a5,-872(a5) # 8007c98 <grass>
 80067f0:	0a87a703          	lw	a4,168(a5)
 80067f4:	fc440793          	addi	a5,s0,-60
 80067f8:	02800613          	li	a2,40
 80067fc:	00078593          	mv	a1,a5
 8006800:	00300513          	li	a0,3
 8006804:	000700e7          	jalr	a4
 8006808:	080087b7          	lui	a5,0x8008
 800680c:	c987a783          	lw	a5,-872(a5) # 8007c98 <grass>
 8006810:	0ac7a703          	lw	a4,172(a5)
 8006814:	40000613          	li	a2,1024
 8006818:	080087b7          	lui	a5,0x8008
 800681c:	cb878593          	addi	a1,a5,-840 # 8007cb8 <buf>
 8006820:	080087b7          	lui	a5,0x8008
 8006824:	ca878513          	addi	a0,a5,-856 # 8007ca8 <sender>
 8006828:	000700e7          	jalr	a4
 800682c:	080087b7          	lui	a5,0x8008
 8006830:	ca87a703          	lw	a4,-856(a5) # 8007ca8 <sender>
 8006834:	00300793          	li	a5,3
 8006838:	00f70e63          	beq	a4,a5,8006854 <dir_lookup+0xa8>
 800683c:	080087b7          	lui	a5,0x8008
 8006840:	c9c7a783          	lw	a5,-868(a5) # 8007c9c <earth>
 8006844:	03c7a703          	lw	a4,60(a5)
 8006848:	080077b7          	lui	a5,0x8007
 800684c:	60078513          	addi	a0,a5,1536 # 8007600 <__modsi3+0xec>
 8006850:	000700e7          	jalr	a4
 8006854:	080087b7          	lui	a5,0x8008
 8006858:	cb878793          	addi	a5,a5,-840 # 8007cb8 <buf>
 800685c:	fef42623          	sw	a5,-20(s0)
 8006860:	fec42783          	lw	a5,-20(s0)
 8006864:	0007a783          	lw	a5,0(a5)
 8006868:	00079863          	bnez	a5,8006878 <dir_lookup+0xcc>
 800686c:	fec42783          	lw	a5,-20(s0)
 8006870:	0047a783          	lw	a5,4(a5)
 8006874:	0080006f          	j	800687c <dir_lookup+0xd0>
 8006878:	fff00793          	li	a5,-1
 800687c:	00078513          	mv	a0,a5
 8006880:	04c12083          	lw	ra,76(sp)
 8006884:	04812403          	lw	s0,72(sp)
 8006888:	05010113          	addi	sp,sp,80
 800688c:	00008067          	ret

08006890 <file_read>:
file_read():
 8006890:	dd010113          	addi	sp,sp,-560
 8006894:	22112623          	sw	ra,556(sp)
 8006898:	22812423          	sw	s0,552(sp)
 800689c:	23010413          	addi	s0,sp,560
 80068a0:	dca42e23          	sw	a0,-548(s0)
 80068a4:	dcb42c23          	sw	a1,-552(s0)
 80068a8:	dcc42a23          	sw	a2,-556(s0)
 80068ac:	00100793          	li	a5,1
 80068b0:	def42023          	sw	a5,-544(s0)
 80068b4:	ddc42783          	lw	a5,-548(s0)
 80068b8:	def42223          	sw	a5,-540(s0)
 80068bc:	dd842783          	lw	a5,-552(s0)
 80068c0:	def42423          	sw	a5,-536(s0)
 80068c4:	080087b7          	lui	a5,0x8008
 80068c8:	c987a783          	lw	a5,-872(a5) # 8007c98 <grass>
 80068cc:	0a87a703          	lw	a4,168(a5)
 80068d0:	de040793          	addi	a5,s0,-544
 80068d4:	20c00613          	li	a2,524
 80068d8:	00078593          	mv	a1,a5
 80068dc:	00200513          	li	a0,2
 80068e0:	000700e7          	jalr	a4
 80068e4:	080087b7          	lui	a5,0x8008
 80068e8:	c987a783          	lw	a5,-872(a5) # 8007c98 <grass>
 80068ec:	0ac7a703          	lw	a4,172(a5)
 80068f0:	40000613          	li	a2,1024
 80068f4:	080087b7          	lui	a5,0x8008
 80068f8:	cb878593          	addi	a1,a5,-840 # 8007cb8 <buf>
 80068fc:	080087b7          	lui	a5,0x8008
 8006900:	ca878513          	addi	a0,a5,-856 # 8007ca8 <sender>
 8006904:	000700e7          	jalr	a4
 8006908:	080087b7          	lui	a5,0x8008
 800690c:	ca87a703          	lw	a4,-856(a5) # 8007ca8 <sender>
 8006910:	00200793          	li	a5,2
 8006914:	00f70e63          	beq	a4,a5,8006930 <file_read+0xa0>
 8006918:	080087b7          	lui	a5,0x8008
 800691c:	c9c7a783          	lw	a5,-868(a5) # 8007c9c <earth>
 8006920:	03c7a703          	lw	a4,60(a5)
 8006924:	080077b7          	lui	a5,0x8007
 8006928:	62078513          	addi	a0,a5,1568 # 8007620 <__modsi3+0x10c>
 800692c:	000700e7          	jalr	a4
 8006930:	080087b7          	lui	a5,0x8008
 8006934:	cb878793          	addi	a5,a5,-840 # 8007cb8 <buf>
 8006938:	fef42623          	sw	a5,-20(s0)
 800693c:	fec42783          	lw	a5,-20(s0)
 8006940:	00478793          	addi	a5,a5,4
 8006944:	20000613          	li	a2,512
 8006948:	00078593          	mv	a1,a5
 800694c:	dd442503          	lw	a0,-556(s0)
 8006950:	5ec000ef          	jal	ra,8006f3c <memcpy>
 8006954:	fec42783          	lw	a5,-20(s0)
 8006958:	0007a783          	lw	a5,0(a5)
 800695c:	00079663          	bnez	a5,8006968 <file_read+0xd8>
 8006960:	00000793          	li	a5,0
 8006964:	0080006f          	j	800696c <file_read+0xdc>
 8006968:	fff00793          	li	a5,-1
 800696c:	00078513          	mv	a0,a5
 8006970:	22c12083          	lw	ra,556(sp)
 8006974:	22812403          	lw	s0,552(sp)
 8006978:	23010113          	addi	sp,sp,560
 800697c:	00008067          	ret

08006980 <main>:
main():
 8006980:	be010113          	addi	sp,sp,-1056
 8006984:	40112e23          	sw	ra,1052(sp)
 8006988:	40812c23          	sw	s0,1048(sp)
 800698c:	42010413          	addi	s0,sp,1056
 8006990:	080087b7          	lui	a5,0x8008
 8006994:	c9c7a783          	lw	a5,-868(a5) # 8007c9c <earth>
 8006998:	0407a703          	lw	a4,64(a5)
 800699c:	080077b7          	lui	a5,0x8007
 80069a0:	66078513          	addi	a0,a5,1632 # 8007660 <__modsi3+0x14c>
 80069a4:	000700e7          	jalr	a4
 80069a8:	000017b7          	lui	a5,0x1
 80069ac:	a0078513          	addi	a0,a5,-1536 # a00 <__heap_size+0x200>
 80069b0:	4ac000ef          	jal	ra,8006e5c <sys_spawn>
 80069b4:	080087b7          	lui	a5,0x8008
 80069b8:	c987a783          	lw	a5,-872(a5) # 8007c98 <grass>
 80069bc:	0ac7a703          	lw	a4,172(a5)
 80069c0:	be040793          	addi	a5,s0,-1056
 80069c4:	40000613          	li	a2,1024
 80069c8:	00078593          	mv	a1,a5
 80069cc:	00000513          	li	a0,0
 80069d0:	000700e7          	jalr	a4
 80069d4:	080087b7          	lui	a5,0x8008
 80069d8:	c9c7a783          	lw	a5,-868(a5) # 8007c9c <earth>
 80069dc:	0387a703          	lw	a4,56(a5)
 80069e0:	be040793          	addi	a5,s0,-1056
 80069e4:	00078593          	mv	a1,a5
 80069e8:	080077b7          	lui	a5,0x8007
 80069ec:	68478513          	addi	a0,a5,1668 # 8007684 <__modsi3+0x170>
 80069f0:	000700e7          	jalr	a4
 80069f4:	000017b7          	lui	a5,0x1
 80069f8:	b0078513          	addi	a0,a5,-1280 # b00 <__heap_size+0x300>
 80069fc:	460000ef          	jal	ra,8006e5c <sys_spawn>
 8006a00:	080087b7          	lui	a5,0x8008
 8006a04:	c987a783          	lw	a5,-872(a5) # 8007c98 <grass>
 8006a08:	0ac7a703          	lw	a4,172(a5)
 8006a0c:	be040793          	addi	a5,s0,-1056
 8006a10:	40000613          	li	a2,1024
 8006a14:	00078593          	mv	a1,a5
 8006a18:	00000513          	li	a0,0
 8006a1c:	000700e7          	jalr	a4
 8006a20:	080087b7          	lui	a5,0x8008
 8006a24:	c9c7a783          	lw	a5,-868(a5) # 8007c9c <earth>
 8006a28:	0387a703          	lw	a4,56(a5)
 8006a2c:	be040793          	addi	a5,s0,-1056
 8006a30:	00078593          	mv	a1,a5
 8006a34:	080077b7          	lui	a5,0x8007
 8006a38:	68478513          	addi	a0,a5,1668 # 8007684 <__modsi3+0x170>
 8006a3c:	000700e7          	jalr	a4
 8006a40:	000017b7          	lui	a5,0x1
 8006a44:	c0078513          	addi	a0,a5,-1024 # c00 <__heap_size+0x400>
 8006a48:	414000ef          	jal	ra,8006e5c <sys_spawn>
 8006a4c:	be040793          	addi	a5,s0,-1056
 8006a50:	fef42423          	sw	a5,-24(s0)
 8006a54:	be040793          	addi	a5,s0,-1056
 8006a58:	fef42223          	sw	a5,-28(s0)
 8006a5c:	080087b7          	lui	a5,0x8008
 8006a60:	c987a783          	lw	a5,-872(a5) # 8007c98 <grass>
 8006a64:	0ac7a683          	lw	a3,172(a5)
 8006a68:	be040713          	addi	a4,s0,-1056
 8006a6c:	fe040793          	addi	a5,s0,-32
 8006a70:	40000613          	li	a2,1024
 8006a74:	00070593          	mv	a1,a4
 8006a78:	00078513          	mv	a0,a5
 8006a7c:	000680e7          	jalr	a3
 8006a80:	fe842783          	lw	a5,-24(s0)
 8006a84:	0007a783          	lw	a5,0(a5)
 8006a88:	00100713          	li	a4,1
 8006a8c:	0ce78063          	beq	a5,a4,8006b4c <main+0x1cc>
 8006a90:	00078c63          	beqz	a5,8006aa8 <main+0x128>
 8006a94:	00200713          	li	a4,2
 8006a98:	12e78463          	beq	a5,a4,8006bc0 <main+0x240>
 8006a9c:	00400713          	li	a4,4
 8006aa0:	12e78c63          	beq	a5,a4,8006bd8 <main+0x258>
 8006aa4:	17c0006f          	j	8006c20 <main+0x2a0>
 8006aa8:	fe842503          	lw	a0,-24(s0)
 8006aac:	1e4000ef          	jal	ra,8006c90 <app_spawn>
 8006ab0:	00050793          	mv	a5,a0
 8006ab4:	01f7d793          	srli	a5,a5,0x1f
 8006ab8:	0ff7f793          	andi	a5,a5,255
 8006abc:	00078713          	mv	a4,a5
 8006ac0:	fe442783          	lw	a5,-28(s0)
 8006ac4:	00e7a023          	sw	a4,0(a5)
 8006ac8:	fe842783          	lw	a5,-24(s0)
 8006acc:	0047a783          	lw	a5,4(a5)
 8006ad0:	fff78793          	addi	a5,a5,-1
 8006ad4:	fe842703          	lw	a4,-24(s0)
 8006ad8:	00579793          	slli	a5,a5,0x5
 8006adc:	00f707b3          	add	a5,a4,a5
 8006ae0:	0087c783          	lbu	a5,8(a5)
 8006ae4:	fda78793          	addi	a5,a5,-38
 8006ae8:	00f037b3          	snez	a5,a5
 8006aec:	0ff7f793          	andi	a5,a5,255
 8006af0:	fef42623          	sw	a5,-20(s0)
 8006af4:	fec42783          	lw	a5,-20(s0)
 8006af8:	02079a63          	bnez	a5,8006b2c <main+0x1ac>
 8006afc:	080087b7          	lui	a5,0x8008
 8006b00:	cb07a783          	lw	a5,-848(a5) # 8007cb0 <app_pid>
 8006b04:	02f05463          	blez	a5,8006b2c <main+0x1ac>
 8006b08:	080087b7          	lui	a5,0x8008
 8006b0c:	c9c7a783          	lw	a5,-868(a5) # 8007c9c <earth>
 8006b10:	0387a703          	lw	a4,56(a5)
 8006b14:	080087b7          	lui	a5,0x8008
 8006b18:	cb07a783          	lw	a5,-848(a5) # 8007cb0 <app_pid>
 8006b1c:	00078593          	mv	a1,a5
 8006b20:	080077b7          	lui	a5,0x8007
 8006b24:	69c78513          	addi	a0,a5,1692 # 800769c <__modsi3+0x188>
 8006b28:	000700e7          	jalr	a4
 8006b2c:	080087b7          	lui	a5,0x8008
 8006b30:	c987a783          	lw	a5,-872(a5) # 8007c98 <grass>
 8006b34:	0a87a783          	lw	a5,168(a5)
 8006b38:	00400613          	li	a2,4
 8006b3c:	fe442583          	lw	a1,-28(s0)
 8006b40:	00400513          	li	a0,4
 8006b44:	000780e7          	jalr	a5
 8006b48:	0fc0006f          	j	8006c44 <main+0x2c4>
 8006b4c:	080087b7          	lui	a5,0x8008
 8006b50:	c987a783          	lw	a5,-872(a5) # 8007c98 <grass>
 8006b54:	0887a703          	lw	a4,136(a5)
 8006b58:	fe042783          	lw	a5,-32(s0)
 8006b5c:	00078513          	mv	a0,a5
 8006b60:	000700e7          	jalr	a4
 8006b64:	fec42783          	lw	a5,-20(s0)
 8006b68:	02078a63          	beqz	a5,8006b9c <main+0x21c>
 8006b6c:	080087b7          	lui	a5,0x8008
 8006b70:	cb07a703          	lw	a4,-848(a5) # 8007cb0 <app_pid>
 8006b74:	fe042783          	lw	a5,-32(s0)
 8006b78:	02f71263          	bne	a4,a5,8006b9c <main+0x21c>
 8006b7c:	080087b7          	lui	a5,0x8008
 8006b80:	c987a783          	lw	a5,-872(a5) # 8007c98 <grass>
 8006b84:	0a87a783          	lw	a5,168(a5)
 8006b88:	00400613          	li	a2,4
 8006b8c:	fe442583          	lw	a1,-28(s0)
 8006b90:	00400513          	li	a0,4
 8006b94:	000780e7          	jalr	a5
 8006b98:	0ac0006f          	j	8006c44 <main+0x2c4>
 8006b9c:	080087b7          	lui	a5,0x8008
 8006ba0:	c9c7a783          	lw	a5,-868(a5) # 8007c9c <earth>
 8006ba4:	0387a703          	lw	a4,56(a5)
 8006ba8:	fe042783          	lw	a5,-32(s0)
 8006bac:	00078593          	mv	a1,a5
 8006bb0:	080077b7          	lui	a5,0x8007
 8006bb4:	6c478513          	addi	a0,a5,1732 # 80076c4 <__modsi3+0x1b0>
 8006bb8:	000700e7          	jalr	a4
 8006bbc:	0880006f          	j	8006c44 <main+0x2c4>
 8006bc0:	080087b7          	lui	a5,0x8008
 8006bc4:	c987a783          	lw	a5,-872(a5) # 8007c98 <grass>
 8006bc8:	0887a783          	lw	a5,136(a5)
 8006bcc:	fff00513          	li	a0,-1
 8006bd0:	000780e7          	jalr	a5
 8006bd4:	0700006f          	j	8006c44 <main+0x2c4>
 8006bd8:	fe842783          	lw	a5,-24(s0)
 8006bdc:	00878793          	addi	a5,a5,8
 8006be0:	00078513          	mv	a0,a5
 8006be4:	340000ef          	jal	ra,8006f24 <atoi>
 8006be8:	00050793          	mv	a5,a0
 8006bec:	00078513          	mv	a0,a5
 8006bf0:	1d4000ef          	jal	ra,8006dc4 <app_kill>
 8006bf4:	fe442783          	lw	a5,-28(s0)
 8006bf8:	0007a023          	sw	zero,0(a5)
 8006bfc:	080087b7          	lui	a5,0x8008
 8006c00:	c987a783          	lw	a5,-872(a5) # 8007c98 <grass>
 8006c04:	0a87a703          	lw	a4,168(a5)
 8006c08:	fe042783          	lw	a5,-32(s0)
 8006c0c:	00400613          	li	a2,4
 8006c10:	fe442583          	lw	a1,-28(s0)
 8006c14:	00078513          	mv	a0,a5
 8006c18:	000700e7          	jalr	a4
 8006c1c:	0280006f          	j	8006c44 <main+0x2c4>
 8006c20:	080087b7          	lui	a5,0x8008
 8006c24:	c9c7a783          	lw	a5,-868(a5) # 8007c9c <earth>
 8006c28:	03c7a703          	lw	a4,60(a5)
 8006c2c:	fe842783          	lw	a5,-24(s0)
 8006c30:	0007a783          	lw	a5,0(a5)
 8006c34:	00078593          	mv	a1,a5
 8006c38:	080077b7          	lui	a5,0x8007
 8006c3c:	6e878513          	addi	a0,a5,1768 # 80076e8 <__modsi3+0x1d4>
 8006c40:	000700e7          	jalr	a4
 8006c44:	e09ff06f          	j	8006a4c <main+0xcc>

08006c48 <app_read>:
app_read():
 8006c48:	fe010113          	addi	sp,sp,-32
 8006c4c:	00112e23          	sw	ra,28(sp)
 8006c50:	00812c23          	sw	s0,24(sp)
 8006c54:	02010413          	addi	s0,sp,32
 8006c58:	fea42623          	sw	a0,-20(s0)
 8006c5c:	feb42423          	sw	a1,-24(s0)
 8006c60:	080087b7          	lui	a5,0x8008
 8006c64:	cac7a783          	lw	a5,-852(a5) # 8007cac <app_ino>
 8006c68:	fe842603          	lw	a2,-24(s0)
 8006c6c:	fec42583          	lw	a1,-20(s0)
 8006c70:	00078513          	mv	a0,a5
 8006c74:	c1dff0ef          	jal	ra,8006890 <file_read>
 8006c78:	00000013          	nop
 8006c7c:	00078513          	mv	a0,a5
 8006c80:	01c12083          	lw	ra,28(sp)
 8006c84:	01812403          	lw	s0,24(sp)
 8006c88:	02010113          	addi	sp,sp,32
 8006c8c:	00008067          	ret

08006c90 <app_spawn>:
app_spawn():
 8006c90:	fd010113          	addi	sp,sp,-48
 8006c94:	02112623          	sw	ra,44(sp)
 8006c98:	02812423          	sw	s0,40(sp)
 8006c9c:	03010413          	addi	s0,sp,48
 8006ca0:	fca42e23          	sw	a0,-36(s0)
 8006ca4:	080077b7          	lui	a5,0x8007
 8006ca8:	70878593          	addi	a1,a5,1800 # 8007708 <__modsi3+0x1f4>
 8006cac:	00000513          	li	a0,0
 8006cb0:	afdff0ef          	jal	ra,80067ac <dir_lookup>
 8006cb4:	fea42623          	sw	a0,-20(s0)
 8006cb8:	fdc42783          	lw	a5,-36(s0)
 8006cbc:	00878793          	addi	a5,a5,8
 8006cc0:	00078593          	mv	a1,a5
 8006cc4:	fec42503          	lw	a0,-20(s0)
 8006cc8:	ae5ff0ef          	jal	ra,80067ac <dir_lookup>
 8006ccc:	00050713          	mv	a4,a0
 8006cd0:	080087b7          	lui	a5,0x8008
 8006cd4:	cae7a623          	sw	a4,-852(a5) # 8007cac <app_ino>
 8006cd8:	080087b7          	lui	a5,0x8008
 8006cdc:	cac7a783          	lw	a5,-852(a5) # 8007cac <app_ino>
 8006ce0:	0007d663          	bgez	a5,8006cec <app_spawn+0x5c>
 8006ce4:	fff00793          	li	a5,-1
 8006ce8:	0c80006f          	j	8006db0 <app_spawn+0x120>
 8006cec:	080087b7          	lui	a5,0x8008
 8006cf0:	c987a783          	lw	a5,-872(a5) # 8007c98 <grass>
 8006cf4:	0847a783          	lw	a5,132(a5)
 8006cf8:	000780e7          	jalr	a5
 8006cfc:	00050713          	mv	a4,a0
 8006d00:	080087b7          	lui	a5,0x8008
 8006d04:	cae7a823          	sw	a4,-848(a5) # 8007cb0 <app_pid>
 8006d08:	fdc42783          	lw	a5,-36(s0)
 8006d0c:	0047a783          	lw	a5,4(a5)
 8006d10:	fff78793          	addi	a5,a5,-1
 8006d14:	fdc42703          	lw	a4,-36(s0)
 8006d18:	00579793          	slli	a5,a5,0x5
 8006d1c:	00f707b3          	add	a5,a4,a5
 8006d20:	0087c703          	lbu	a4,8(a5)
 8006d24:	02600793          	li	a5,38
 8006d28:	00f71a63          	bne	a4,a5,8006d3c <app_spawn+0xac>
 8006d2c:	fdc42783          	lw	a5,-36(s0)
 8006d30:	0047a783          	lw	a5,4(a5)
 8006d34:	fff78793          	addi	a5,a5,-1
 8006d38:	00c0006f          	j	8006d44 <app_spawn+0xb4>
 8006d3c:	fdc42783          	lw	a5,-36(s0)
 8006d40:	0047a783          	lw	a5,4(a5)
 8006d44:	fef42423          	sw	a5,-24(s0)
 8006d48:	080087b7          	lui	a5,0x8008
 8006d4c:	cb07a703          	lw	a4,-848(a5) # 8007cb0 <app_pid>
 8006d50:	fdc42783          	lw	a5,-36(s0)
 8006d54:	00878793          	addi	a5,a5,8
 8006d58:	00078693          	mv	a3,a5
 8006d5c:	fe842603          	lw	a2,-24(s0)
 8006d60:	080077b7          	lui	a5,0x8007
 8006d64:	c4878593          	addi	a1,a5,-952 # 8006c48 <app_read>
 8006d68:	00070513          	mv	a0,a4
 8006d6c:	939ff0ef          	jal	ra,80066a4 <elf_load>
 8006d70:	080087b7          	lui	a5,0x8008
 8006d74:	c987a783          	lw	a5,-872(a5) # 8007c98 <grass>
 8006d78:	08c7a703          	lw	a4,140(a5)
 8006d7c:	080087b7          	lui	a5,0x8008
 8006d80:	cb07a783          	lw	a5,-848(a5) # 8007cb0 <app_pid>
 8006d84:	00078513          	mv	a0,a5
 8006d88:	000700e7          	jalr	a4
 8006d8c:	080087b7          	lui	a5,0x8008
 8006d90:	c987a783          	lw	a5,-872(a5) # 8007c98 <grass>
 8006d94:	0947a703          	lw	a4,148(a5)
 8006d98:	080087b7          	lui	a5,0x8008
 8006d9c:	cb07a783          	lw	a5,-848(a5) # 8007cb0 <app_pid>
 8006da0:	00200593          	li	a1,2
 8006da4:	00078513          	mv	a0,a5
 8006da8:	000700e7          	jalr	a4
 8006dac:	00000793          	li	a5,0
 8006db0:	00078513          	mv	a0,a5
 8006db4:	02c12083          	lw	ra,44(sp)
 8006db8:	02812403          	lw	s0,40(sp)
 8006dbc:	03010113          	addi	sp,sp,48
 8006dc0:	00008067          	ret

08006dc4 <app_kill>:
app_kill():
 8006dc4:	fe010113          	addi	sp,sp,-32
 8006dc8:	00112e23          	sw	ra,28(sp)
 8006dcc:	00812c23          	sw	s0,24(sp)
 8006dd0:	02010413          	addi	s0,sp,32
 8006dd4:	fea42623          	sw	a0,-20(s0)
 8006dd8:	080087b7          	lui	a5,0x8008
 8006ddc:	c987a783          	lw	a5,-872(a5) # 8007c98 <grass>
 8006de0:	0887a783          	lw	a5,136(a5)
 8006de4:	fec42503          	lw	a0,-20(s0)
 8006de8:	000780e7          	jalr	a5
 8006dec:	00000013          	nop
 8006df0:	01c12083          	lw	ra,28(sp)
 8006df4:	01812403          	lw	s0,24(sp)
 8006df8:	02010113          	addi	sp,sp,32
 8006dfc:	00008067          	ret

08006e00 <sys_proc_read>:
sys_proc_read():
 8006e00:	fe010113          	addi	sp,sp,-32
 8006e04:	00112e23          	sw	ra,28(sp)
 8006e08:	00812c23          	sw	s0,24(sp)
 8006e0c:	02010413          	addi	s0,sp,32
 8006e10:	fea42623          	sw	a0,-20(s0)
 8006e14:	feb42423          	sw	a1,-24(s0)
 8006e18:	080087b7          	lui	a5,0x8008
 8006e1c:	c9c7a783          	lw	a5,-868(a5) # 8007c9c <earth>
 8006e20:	0207a683          	lw	a3,32(a5)
 8006e24:	080087b7          	lui	a5,0x8008
 8006e28:	cb47a703          	lw	a4,-844(a5) # 8007cb4 <sys_proc_base>
 8006e2c:	fec42783          	lw	a5,-20(s0)
 8006e30:	00f707b3          	add	a5,a4,a5
 8006e34:	fe842603          	lw	a2,-24(s0)
 8006e38:	00100593          	li	a1,1
 8006e3c:	00078513          	mv	a0,a5
 8006e40:	000680e7          	jalr	a3
 8006e44:	00050793          	mv	a5,a0
 8006e48:	00078513          	mv	a0,a5
 8006e4c:	01c12083          	lw	ra,28(sp)
 8006e50:	01812403          	lw	s0,24(sp)
 8006e54:	02010113          	addi	sp,sp,32
 8006e58:	00008067          	ret

08006e5c <sys_spawn>:
sys_spawn():
 8006e5c:	fd010113          	addi	sp,sp,-48
 8006e60:	02112623          	sw	ra,44(sp)
 8006e64:	02812423          	sw	s0,40(sp)
 8006e68:	03010413          	addi	s0,sp,48
 8006e6c:	fca42e23          	sw	a0,-36(s0)
 8006e70:	080087b7          	lui	a5,0x8008
 8006e74:	c987a783          	lw	a5,-872(a5) # 8007c98 <grass>
 8006e78:	0847a783          	lw	a5,132(a5)
 8006e7c:	000780e7          	jalr	a5
 8006e80:	fea42623          	sw	a0,-20(s0)
 8006e84:	080087b7          	lui	a5,0x8008
 8006e88:	c9c7a783          	lw	a5,-868(a5) # 8007c9c <earth>
 8006e8c:	0387a683          	lw	a3,56(a5)
 8006e90:	fec42783          	lw	a5,-20(s0)
 8006e94:	fff78793          	addi	a5,a5,-1
 8006e98:	08008737          	lui	a4,0x8008
 8006e9c:	86070713          	addi	a4,a4,-1952 # 8007860 <sysproc_names>
 8006ea0:	00279793          	slli	a5,a5,0x2
 8006ea4:	00f707b3          	add	a5,a4,a5
 8006ea8:	0007a783          	lw	a5,0(a5)
 8006eac:	00078613          	mv	a2,a5
 8006eb0:	fec42583          	lw	a1,-20(s0)
 8006eb4:	080077b7          	lui	a5,0x8007
 8006eb8:	73c78513          	addi	a0,a5,1852 # 800773c <__modsi3+0x228>
 8006ebc:	000680e7          	jalr	a3
 8006ec0:	080087b7          	lui	a5,0x8008
 8006ec4:	fdc42703          	lw	a4,-36(s0)
 8006ec8:	cae7aa23          	sw	a4,-844(a5) # 8007cb4 <sys_proc_base>
 8006ecc:	00000693          	li	a3,0
 8006ed0:	00000613          	li	a2,0
 8006ed4:	080077b7          	lui	a5,0x8007
 8006ed8:	e0078593          	addi	a1,a5,-512 # 8006e00 <sys_proc_read>
 8006edc:	fec42503          	lw	a0,-20(s0)
 8006ee0:	fc4ff0ef          	jal	ra,80066a4 <elf_load>
 8006ee4:	080087b7          	lui	a5,0x8008
 8006ee8:	c987a783          	lw	a5,-872(a5) # 8007c98 <grass>
 8006eec:	08c7a783          	lw	a5,140(a5)
 8006ef0:	fec42503          	lw	a0,-20(s0)
 8006ef4:	000780e7          	jalr	a5
 8006ef8:	080087b7          	lui	a5,0x8008
 8006efc:	c987a783          	lw	a5,-872(a5) # 8007c98 <grass>
 8006f00:	0947a783          	lw	a5,148(a5)
 8006f04:	00200593          	li	a1,2
 8006f08:	fec42503          	lw	a0,-20(s0)
 8006f0c:	000780e7          	jalr	a5
 8006f10:	00000013          	nop
 8006f14:	02c12083          	lw	ra,44(sp)
 8006f18:	02812403          	lw	s0,40(sp)
 8006f1c:	03010113          	addi	sp,sp,48
 8006f20:	00008067          	ret

08006f24 <atoi>:
atoi():
 8006f24:	00a00613          	li	a2,10
 8006f28:	00000593          	li	a1,0
 8006f2c:	5240006f          	j	8007450 <strtol>

08006f30 <_atoi_r>:
_atoi_r():
 8006f30:	00a00693          	li	a3,10
 8006f34:	00000613          	li	a2,0
 8006f38:	4f80006f          	j	8007430 <_strtol_r>

08006f3c <memcpy>:
memcpy():
 8006f3c:	00a5c7b3          	xor	a5,a1,a0
 8006f40:	0037f793          	andi	a5,a5,3
 8006f44:	00c508b3          	add	a7,a0,a2
 8006f48:	06079263          	bnez	a5,8006fac <memcpy+0x70>
 8006f4c:	00300793          	li	a5,3
 8006f50:	04c7fe63          	bgeu	a5,a2,8006fac <memcpy+0x70>
 8006f54:	00357793          	andi	a5,a0,3
 8006f58:	00050713          	mv	a4,a0
 8006f5c:	06079863          	bnez	a5,8006fcc <memcpy+0x90>
 8006f60:	ffc8f613          	andi	a2,a7,-4
 8006f64:	fe060793          	addi	a5,a2,-32 # fe0 <__heap_size+0x7e0>
 8006f68:	08f76c63          	bltu	a4,a5,8007000 <memcpy+0xc4>
 8006f6c:	02c77c63          	bgeu	a4,a2,8006fa4 <memcpy+0x68>
 8006f70:	00058693          	mv	a3,a1
 8006f74:	00070793          	mv	a5,a4
 8006f78:	0006a803          	lw	a6,0(a3)
 8006f7c:	00478793          	addi	a5,a5,4
 8006f80:	00468693          	addi	a3,a3,4
 8006f84:	ff07ae23          	sw	a6,-4(a5)
 8006f88:	fec7e8e3          	bltu	a5,a2,8006f78 <memcpy+0x3c>
 8006f8c:	fff60793          	addi	a5,a2,-1
 8006f90:	40e787b3          	sub	a5,a5,a4
 8006f94:	ffc7f793          	andi	a5,a5,-4
 8006f98:	00478793          	addi	a5,a5,4
 8006f9c:	00f70733          	add	a4,a4,a5
 8006fa0:	00f585b3          	add	a1,a1,a5
 8006fa4:	01176863          	bltu	a4,a7,8006fb4 <memcpy+0x78>
 8006fa8:	00008067          	ret
 8006fac:	00050713          	mv	a4,a0
 8006fb0:	ff157ce3          	bgeu	a0,a7,8006fa8 <memcpy+0x6c>
 8006fb4:	0005c783          	lbu	a5,0(a1)
 8006fb8:	00170713          	addi	a4,a4,1
 8006fbc:	00158593          	addi	a1,a1,1
 8006fc0:	fef70fa3          	sb	a5,-1(a4)
 8006fc4:	ff1768e3          	bltu	a4,a7,8006fb4 <memcpy+0x78>
 8006fc8:	00008067          	ret
 8006fcc:	0005c683          	lbu	a3,0(a1)
 8006fd0:	00170713          	addi	a4,a4,1
 8006fd4:	00377793          	andi	a5,a4,3
 8006fd8:	fed70fa3          	sb	a3,-1(a4)
 8006fdc:	00158593          	addi	a1,a1,1
 8006fe0:	f80780e3          	beqz	a5,8006f60 <memcpy+0x24>
 8006fe4:	0005c683          	lbu	a3,0(a1)
 8006fe8:	00170713          	addi	a4,a4,1
 8006fec:	00377793          	andi	a5,a4,3
 8006ff0:	fed70fa3          	sb	a3,-1(a4)
 8006ff4:	00158593          	addi	a1,a1,1
 8006ff8:	fc079ae3          	bnez	a5,8006fcc <memcpy+0x90>
 8006ffc:	f65ff06f          	j	8006f60 <memcpy+0x24>
 8007000:	0005a683          	lw	a3,0(a1)
 8007004:	0045a283          	lw	t0,4(a1)
 8007008:	0085af83          	lw	t6,8(a1)
 800700c:	00c5af03          	lw	t5,12(a1)
 8007010:	0105ae83          	lw	t4,16(a1)
 8007014:	0145ae03          	lw	t3,20(a1)
 8007018:	0185a303          	lw	t1,24(a1)
 800701c:	01c5a803          	lw	a6,28(a1)
 8007020:	02458593          	addi	a1,a1,36
 8007024:	00d72023          	sw	a3,0(a4)
 8007028:	ffc5a683          	lw	a3,-4(a1)
 800702c:	00572223          	sw	t0,4(a4)
 8007030:	01f72423          	sw	t6,8(a4)
 8007034:	01e72623          	sw	t5,12(a4)
 8007038:	01d72823          	sw	t4,16(a4)
 800703c:	01c72a23          	sw	t3,20(a4)
 8007040:	00672c23          	sw	t1,24(a4)
 8007044:	01072e23          	sw	a6,28(a4)
 8007048:	02470713          	addi	a4,a4,36
 800704c:	fed72e23          	sw	a3,-4(a4)
 8007050:	faf768e3          	bltu	a4,a5,8007000 <memcpy+0xc4>
 8007054:	f19ff06f          	j	8006f6c <memcpy+0x30>

08007058 <memset>:
memset():
 8007058:	00f00313          	li	t1,15
 800705c:	00050713          	mv	a4,a0
 8007060:	02c37e63          	bgeu	t1,a2,800709c <memset+0x44>
 8007064:	00f77793          	andi	a5,a4,15
 8007068:	0a079063          	bnez	a5,8007108 <memset+0xb0>
 800706c:	08059263          	bnez	a1,80070f0 <memset+0x98>
 8007070:	ff067693          	andi	a3,a2,-16
 8007074:	00f67613          	andi	a2,a2,15
 8007078:	00e686b3          	add	a3,a3,a4
 800707c:	00b72023          	sw	a1,0(a4)
 8007080:	00b72223          	sw	a1,4(a4)
 8007084:	00b72423          	sw	a1,8(a4)
 8007088:	00b72623          	sw	a1,12(a4)
 800708c:	01070713          	addi	a4,a4,16
 8007090:	fed766e3          	bltu	a4,a3,800707c <memset+0x24>
 8007094:	00061463          	bnez	a2,800709c <memset+0x44>
 8007098:	00008067          	ret
 800709c:	40c306b3          	sub	a3,t1,a2
 80070a0:	00269693          	slli	a3,a3,0x2
 80070a4:	00000297          	auipc	t0,0x0
 80070a8:	005686b3          	add	a3,a3,t0
 80070ac:	00c68067          	jr	12(a3)
 80070b0:	00b70723          	sb	a1,14(a4)
 80070b4:	00b706a3          	sb	a1,13(a4)
 80070b8:	00b70623          	sb	a1,12(a4)
 80070bc:	00b705a3          	sb	a1,11(a4)
 80070c0:	00b70523          	sb	a1,10(a4)
 80070c4:	00b704a3          	sb	a1,9(a4)
 80070c8:	00b70423          	sb	a1,8(a4)
 80070cc:	00b703a3          	sb	a1,7(a4)
 80070d0:	00b70323          	sb	a1,6(a4)
 80070d4:	00b702a3          	sb	a1,5(a4)
 80070d8:	00b70223          	sb	a1,4(a4)
 80070dc:	00b701a3          	sb	a1,3(a4)
 80070e0:	00b70123          	sb	a1,2(a4)
 80070e4:	00b700a3          	sb	a1,1(a4)
 80070e8:	00b70023          	sb	a1,0(a4)
 80070ec:	00008067          	ret
 80070f0:	0ff5f593          	andi	a1,a1,255
 80070f4:	00859693          	slli	a3,a1,0x8
 80070f8:	00d5e5b3          	or	a1,a1,a3
 80070fc:	01059693          	slli	a3,a1,0x10
 8007100:	00d5e5b3          	or	a1,a1,a3
 8007104:	f6dff06f          	j	8007070 <memset+0x18>
 8007108:	00279693          	slli	a3,a5,0x2
 800710c:	00000297          	auipc	t0,0x0
 8007110:	005686b3          	add	a3,a3,t0
 8007114:	00008293          	mv	t0,ra
 8007118:	fa0680e7          	jalr	-96(a3)
 800711c:	00028093          	mv	ra,t0
 8007120:	ff078793          	addi	a5,a5,-16
 8007124:	40f70733          	sub	a4,a4,a5
 8007128:	00f60633          	add	a2,a2,a5
 800712c:	f6c378e3          	bgeu	t1,a2,800709c <memset+0x44>
 8007130:	f3dff06f          	j	800706c <memset+0x14>

08007134 <strcpy>:
strcpy():
 8007134:	00b567b3          	or	a5,a0,a1
 8007138:	0037f793          	andi	a5,a5,3
 800713c:	08079263          	bnez	a5,80071c0 <strcpy+0x8c>
 8007140:	0005a703          	lw	a4,0(a1)
 8007144:	7f7f86b7          	lui	a3,0x7f7f8
 8007148:	f7f68693          	addi	a3,a3,-129 # 7f7f7f7f <__heap_start+0x777efec7>
 800714c:	00d777b3          	and	a5,a4,a3
 8007150:	00d787b3          	add	a5,a5,a3
 8007154:	00e7e7b3          	or	a5,a5,a4
 8007158:	00d7e7b3          	or	a5,a5,a3
 800715c:	fff00613          	li	a2,-1
 8007160:	06c79e63          	bne	a5,a2,80071dc <strcpy+0xa8>
 8007164:	00050613          	mv	a2,a0
 8007168:	fff00813          	li	a6,-1
 800716c:	00460613          	addi	a2,a2,4
 8007170:	00458593          	addi	a1,a1,4
 8007174:	fee62e23          	sw	a4,-4(a2)
 8007178:	0005a703          	lw	a4,0(a1)
 800717c:	00d777b3          	and	a5,a4,a3
 8007180:	00d787b3          	add	a5,a5,a3
 8007184:	00e7e7b3          	or	a5,a5,a4
 8007188:	00d7e7b3          	or	a5,a5,a3
 800718c:	ff0780e3          	beq	a5,a6,800716c <strcpy+0x38>
 8007190:	0005c783          	lbu	a5,0(a1)
 8007194:	0015c703          	lbu	a4,1(a1)
 8007198:	0025c683          	lbu	a3,2(a1)
 800719c:	00f60023          	sb	a5,0(a2)
 80071a0:	00078a63          	beqz	a5,80071b4 <strcpy+0x80>
 80071a4:	00e600a3          	sb	a4,1(a2)
 80071a8:	00070663          	beqz	a4,80071b4 <strcpy+0x80>
 80071ac:	00d60123          	sb	a3,2(a2)
 80071b0:	00069463          	bnez	a3,80071b8 <strcpy+0x84>
 80071b4:	00008067          	ret
 80071b8:	000601a3          	sb	zero,3(a2)
 80071bc:	00008067          	ret
 80071c0:	00050793          	mv	a5,a0
 80071c4:	0005c703          	lbu	a4,0(a1)
 80071c8:	00178793          	addi	a5,a5,1
 80071cc:	00158593          	addi	a1,a1,1
 80071d0:	fee78fa3          	sb	a4,-1(a5)
 80071d4:	fe0718e3          	bnez	a4,80071c4 <strcpy+0x90>
 80071d8:	00008067          	ret
 80071dc:	00050613          	mv	a2,a0
 80071e0:	fb1ff06f          	j	8007190 <strcpy+0x5c>

080071e4 <_strtol_l.isra.0>:
_strtol_l.isra.0():
 80071e4:	fb010113          	addi	sp,sp,-80
 80071e8:	03412c23          	sw	s4,56(sp)
 80071ec:	03512a23          	sw	s5,52(sp)
 80071f0:	03912223          	sw	s9,36(sp)
 80071f4:	04112623          	sw	ra,76(sp)
 80071f8:	00068c93          	mv	s9,a3
 80071fc:	04812423          	sw	s0,72(sp)
 8007200:	04912223          	sw	s1,68(sp)
 8007204:	05212023          	sw	s2,64(sp)
 8007208:	03312e23          	sw	s3,60(sp)
 800720c:	03612823          	sw	s6,48(sp)
 8007210:	03712623          	sw	s7,44(sp)
 8007214:	03812423          	sw	s8,40(sp)
 8007218:	03a12023          	sw	s10,32(sp)
 800721c:	01b12e23          	sw	s11,28(sp)
 8007220:	00058a13          	mv	s4,a1
 8007224:	00a12623          	sw	a0,12(sp)
 8007228:	00060a93          	mv	s5,a2
 800722c:	00058793          	mv	a5,a1
 8007230:	00000697          	auipc	a3,0x0
 8007234:	52968693          	addi	a3,a3,1321 # 8007759 <_ctype_+0x1>
 8007238:	0080006f          	j	8007240 <_strtol_l.isra.0+0x5c>
 800723c:	00048793          	mv	a5,s1
 8007240:	00178493          	addi	s1,a5,1
 8007244:	fff4c403          	lbu	s0,-1(s1)
 8007248:	00868733          	add	a4,a3,s0
 800724c:	00074703          	lbu	a4,0(a4)
 8007250:	00877713          	andi	a4,a4,8
 8007254:	fe0714e3          	bnez	a4,800723c <_strtol_l.isra.0+0x58>
 8007258:	02d00713          	li	a4,45
 800725c:	16e40863          	beq	s0,a4,80073cc <_strtol_l.isra.0+0x1e8>
 8007260:	02b00713          	li	a4,43
 8007264:	00000b93          	li	s7,0
 8007268:	10e40e63          	beq	s0,a4,8007384 <_strtol_l.isra.0+0x1a0>
 800726c:	120c8463          	beqz	s9,8007394 <_strtol_l.isra.0+0x1b0>
 8007270:	01000793          	li	a5,16
 8007274:	000c8913          	mv	s2,s9
 8007278:	16fc8263          	beq	s9,a5,80073dc <_strtol_l.isra.0+0x1f8>
 800727c:	800009b7          	lui	s3,0x80000
 8007280:	000b9463          	bnez	s7,8007288 <_strtol_l.isra.0+0xa4>
 8007284:	fff9c993          	not	s3,s3
 8007288:	00090593          	mv	a1,s2
 800728c:	00098513          	mv	a0,s3
 8007290:	250000ef          	jal	ra,80074e0 <__umodsi3>
 8007294:	00a12423          	sw	a0,8(sp)
 8007298:	00090593          	mv	a1,s2
 800729c:	00098513          	mv	a0,s3
 80072a0:	1f8000ef          	jal	ra,8007498 <__udivsi3>
 80072a4:	00900d13          	li	s10,9
 80072a8:	fd040793          	addi	a5,s0,-48
 80072ac:	00050c13          	mv	s8,a0
 80072b0:	00000713          	li	a4,0
 80072b4:	00000593          	li	a1,0
 80072b8:	01900b13          	li	s6,25
 80072bc:	fff00d93          	li	s11,-1
 80072c0:	02fd6e63          	bltu	s10,a5,80072fc <_strtol_l.isra.0+0x118>
 80072c4:	00078413          	mv	s0,a5
 80072c8:	05945263          	bge	s0,s9,800730c <_strtol_l.isra.0+0x128>
 80072cc:	03b70063          	beq	a4,s11,80072ec <_strtol_l.isra.0+0x108>
 80072d0:	fff00713          	li	a4,-1
 80072d4:	00bc6c63          	bltu	s8,a1,80072ec <_strtol_l.isra.0+0x108>
 80072d8:	0abc0063          	beq	s8,a1,8007378 <_strtol_l.isra.0+0x194>
 80072dc:	00090513          	mv	a0,s2
 80072e0:	18c000ef          	jal	ra,800746c <__mulsi3>
 80072e4:	00a405b3          	add	a1,s0,a0
 80072e8:	00100713          	li	a4,1
 80072ec:	00148493          	addi	s1,s1,1
 80072f0:	fff4c403          	lbu	s0,-1(s1)
 80072f4:	fd040793          	addi	a5,s0,-48
 80072f8:	fcfd76e3          	bgeu	s10,a5,80072c4 <_strtol_l.isra.0+0xe0>
 80072fc:	fbf40793          	addi	a5,s0,-65
 8007300:	06fb6463          	bltu	s6,a5,8007368 <_strtol_l.isra.0+0x184>
 8007304:	fc940413          	addi	s0,s0,-55
 8007308:	fd9442e3          	blt	s0,s9,80072cc <_strtol_l.isra.0+0xe8>
 800730c:	fff00793          	li	a5,-1
 8007310:	08f70c63          	beq	a4,a5,80073a8 <_strtol_l.isra.0+0x1c4>
 8007314:	000b8463          	beqz	s7,800731c <_strtol_l.isra.0+0x138>
 8007318:	40b005b3          	neg	a1,a1
 800731c:	000a8663          	beqz	s5,8007328 <_strtol_l.isra.0+0x144>
 8007320:	0c071e63          	bnez	a4,80073fc <_strtol_l.isra.0+0x218>
 8007324:	014aa023          	sw	s4,0(s5)
 8007328:	04c12083          	lw	ra,76(sp)
 800732c:	04812403          	lw	s0,72(sp)
 8007330:	04412483          	lw	s1,68(sp)
 8007334:	04012903          	lw	s2,64(sp)
 8007338:	03c12983          	lw	s3,60(sp)
 800733c:	03812a03          	lw	s4,56(sp)
 8007340:	03412a83          	lw	s5,52(sp)
 8007344:	03012b03          	lw	s6,48(sp)
 8007348:	02c12b83          	lw	s7,44(sp)
 800734c:	02812c03          	lw	s8,40(sp)
 8007350:	02412c83          	lw	s9,36(sp)
 8007354:	02012d03          	lw	s10,32(sp)
 8007358:	01c12d83          	lw	s11,28(sp)
 800735c:	00058513          	mv	a0,a1
 8007360:	05010113          	addi	sp,sp,80
 8007364:	00008067          	ret
 8007368:	f9f40793          	addi	a5,s0,-97
 800736c:	fafb60e3          	bltu	s6,a5,800730c <_strtol_l.isra.0+0x128>
 8007370:	fa940413          	addi	s0,s0,-87
 8007374:	f55ff06f          	j	80072c8 <_strtol_l.isra.0+0xe4>
 8007378:	00812783          	lw	a5,8(sp)
 800737c:	f687c8e3          	blt	a5,s0,80072ec <_strtol_l.isra.0+0x108>
 8007380:	f5dff06f          	j	80072dc <_strtol_l.isra.0+0xf8>
 8007384:	0004c403          	lbu	s0,0(s1)
 8007388:	00000b93          	li	s7,0
 800738c:	00278493          	addi	s1,a5,2
 8007390:	ee0c90e3          	bnez	s9,8007270 <_strtol_l.isra.0+0x8c>
 8007394:	03000793          	li	a5,48
 8007398:	06f40663          	beq	s0,a5,8007404 <_strtol_l.isra.0+0x220>
 800739c:	00a00913          	li	s2,10
 80073a0:	00a00c93          	li	s9,10
 80073a4:	ed9ff06f          	j	800727c <_strtol_l.isra.0+0x98>
 80073a8:	00c12703          	lw	a4,12(sp)
 80073ac:	02200793          	li	a5,34
 80073b0:	00098593          	mv	a1,s3
 80073b4:	00f72023          	sw	a5,0(a4)
 80073b8:	f60a88e3          	beqz	s5,8007328 <_strtol_l.isra.0+0x144>
 80073bc:	fff48a13          	addi	s4,s1,-1
 80073c0:	00098593          	mv	a1,s3
 80073c4:	014aa023          	sw	s4,0(s5)
 80073c8:	f61ff06f          	j	8007328 <_strtol_l.isra.0+0x144>
 80073cc:	0004c403          	lbu	s0,0(s1)
 80073d0:	00100b93          	li	s7,1
 80073d4:	00278493          	addi	s1,a5,2
 80073d8:	e95ff06f          	j	800726c <_strtol_l.isra.0+0x88>
 80073dc:	03000793          	li	a5,48
 80073e0:	00f41a63          	bne	s0,a5,80073f4 <_strtol_l.isra.0+0x210>
 80073e4:	0004c783          	lbu	a5,0(s1)
 80073e8:	05800713          	li	a4,88
 80073ec:	0df7f793          	andi	a5,a5,223
 80073f0:	02e78663          	beq	a5,a4,800741c <_strtol_l.isra.0+0x238>
 80073f4:	01000913          	li	s2,16
 80073f8:	e85ff06f          	j	800727c <_strtol_l.isra.0+0x98>
 80073fc:	00058993          	mv	s3,a1
 8007400:	fbdff06f          	j	80073bc <_strtol_l.isra.0+0x1d8>
 8007404:	0004c783          	lbu	a5,0(s1)
 8007408:	05800713          	li	a4,88
 800740c:	00800913          	li	s2,8
 8007410:	0df7f793          	andi	a5,a5,223
 8007414:	00800c93          	li	s9,8
 8007418:	e6e792e3          	bne	a5,a4,800727c <_strtol_l.isra.0+0x98>
 800741c:	0014c403          	lbu	s0,1(s1)
 8007420:	01000913          	li	s2,16
 8007424:	00248493          	addi	s1,s1,2
 8007428:	01000c93          	li	s9,16
 800742c:	e51ff06f          	j	800727c <_strtol_l.isra.0+0x98>

08007430 <_strtol_r>:
_strtol_r():
 8007430:	db5ff06f          	j	80071e4 <_strtol_l.isra.0>

08007434 <strtol_l>:
strtol_l():
 8007434:	00001797          	auipc	a5,0x1
 8007438:	86c78793          	addi	a5,a5,-1940 # 8007ca0 <_impure_ptr>
 800743c:	00060693          	mv	a3,a2
 8007440:	00058613          	mv	a2,a1
 8007444:	00050593          	mv	a1,a0
 8007448:	0007a503          	lw	a0,0(a5)
 800744c:	d99ff06f          	j	80071e4 <_strtol_l.isra.0>

08007450 <strtol>:
strtol():
 8007450:	00001797          	auipc	a5,0x1
 8007454:	85078793          	addi	a5,a5,-1968 # 8007ca0 <_impure_ptr>
 8007458:	00060693          	mv	a3,a2
 800745c:	00058613          	mv	a2,a1
 8007460:	00050593          	mv	a1,a0
 8007464:	0007a503          	lw	a0,0(a5)
 8007468:	d7dff06f          	j	80071e4 <_strtol_l.isra.0>

0800746c <__mulsi3>:
__mulsi3():
/scratch/jenkins/workspace/tpp-freedom-tools/tpp03--build-binary-packages--parameterized/obj/x86_64-linux-ubuntu14/build/riscv-gnu-toolchain/build-gcc-newlib-stage2/riscv64-unknown-elf/rv32i/ilp32/libgcc/../../../../../riscv-gcc/libgcc/config/riscv/muldi3.S:37
 800746c:	00050613          	mv	a2,a0
/scratch/jenkins/workspace/tpp-freedom-tools/tpp03--build-binary-packages--parameterized/obj/x86_64-linux-ubuntu14/build/riscv-gnu-toolchain/build-gcc-newlib-stage2/riscv64-unknown-elf/rv32i/ilp32/libgcc/../../../../../riscv-gcc/libgcc/config/riscv/muldi3.S:38
 8007470:	00000513          	li	a0,0
/scratch/jenkins/workspace/tpp-freedom-tools/tpp03--build-binary-packages--parameterized/obj/x86_64-linux-ubuntu14/build/riscv-gnu-toolchain/build-gcc-newlib-stage2/riscv64-unknown-elf/rv32i/ilp32/libgcc/../../../../../riscv-gcc/libgcc/config/riscv/muldi3.S:40
 8007474:	0015f693          	andi	a3,a1,1
/scratch/jenkins/workspace/tpp-freedom-tools/tpp03--build-binary-packages--parameterized/obj/x86_64-linux-ubuntu14/build/riscv-gnu-toolchain/build-gcc-newlib-stage2/riscv64-unknown-elf/rv32i/ilp32/libgcc/../../../../../riscv-gcc/libgcc/config/riscv/muldi3.S:41
 8007478:	00068463          	beqz	a3,8007480 <__mulsi3+0x14>
/scratch/jenkins/workspace/tpp-freedom-tools/tpp03--build-binary-packages--parameterized/obj/x86_64-linux-ubuntu14/build/riscv-gnu-toolchain/build-gcc-newlib-stage2/riscv64-unknown-elf/rv32i/ilp32/libgcc/../../../../../riscv-gcc/libgcc/config/riscv/muldi3.S:42
 800747c:	00c50533          	add	a0,a0,a2
/scratch/jenkins/workspace/tpp-freedom-tools/tpp03--build-binary-packages--parameterized/obj/x86_64-linux-ubuntu14/build/riscv-gnu-toolchain/build-gcc-newlib-stage2/riscv64-unknown-elf/rv32i/ilp32/libgcc/../../../../../riscv-gcc/libgcc/config/riscv/muldi3.S:44
 8007480:	0015d593          	srli	a1,a1,0x1
/scratch/jenkins/workspace/tpp-freedom-tools/tpp03--build-binary-packages--parameterized/obj/x86_64-linux-ubuntu14/build/riscv-gnu-toolchain/build-gcc-newlib-stage2/riscv64-unknown-elf/rv32i/ilp32/libgcc/../../../../../riscv-gcc/libgcc/config/riscv/muldi3.S:45
 8007484:	00161613          	slli	a2,a2,0x1
/scratch/jenkins/workspace/tpp-freedom-tools/tpp03--build-binary-packages--parameterized/obj/x86_64-linux-ubuntu14/build/riscv-gnu-toolchain/build-gcc-newlib-stage2/riscv64-unknown-elf/rv32i/ilp32/libgcc/../../../../../riscv-gcc/libgcc/config/riscv/muldi3.S:46
 8007488:	fe0596e3          	bnez	a1,8007474 <__mulsi3+0x8>
/scratch/jenkins/workspace/tpp-freedom-tools/tpp03--build-binary-packages--parameterized/obj/x86_64-linux-ubuntu14/build/riscv-gnu-toolchain/build-gcc-newlib-stage2/riscv64-unknown-elf/rv32i/ilp32/libgcc/../../../../../riscv-gcc/libgcc/config/riscv/muldi3.S:47
 800748c:	00008067          	ret

08007490 <__divsi3>:
__divsi3():
/scratch/jenkins/workspace/tpp-freedom-tools/tpp03--build-binary-packages--parameterized/obj/x86_64-linux-ubuntu14/build/riscv-gnu-toolchain/build-gcc-newlib-stage2/riscv64-unknown-elf/rv32i/ilp32/libgcc/../../../../../riscv-gcc/libgcc/config/riscv/div.S:69
 8007490:	06054063          	bltz	a0,80074f0 <__umodsi3+0x10>
/scratch/jenkins/workspace/tpp-freedom-tools/tpp03--build-binary-packages--parameterized/obj/x86_64-linux-ubuntu14/build/riscv-gnu-toolchain/build-gcc-newlib-stage2/riscv64-unknown-elf/rv32i/ilp32/libgcc/../../../../../riscv-gcc/libgcc/config/riscv/div.S:70
 8007494:	0605c663          	bltz	a1,8007500 <__umodsi3+0x20>

08007498 <__udivsi3>:
/scratch/jenkins/workspace/tpp-freedom-tools/tpp03--build-binary-packages--parameterized/obj/x86_64-linux-ubuntu14/build/riscv-gnu-toolchain/build-gcc-newlib-stage2/riscv64-unknown-elf/rv32i/ilp32/libgcc/../../../../../riscv-gcc/libgcc/config/riscv/div.S:74
 8007498:	00058613          	mv	a2,a1
/scratch/jenkins/workspace/tpp-freedom-tools/tpp03--build-binary-packages--parameterized/obj/x86_64-linux-ubuntu14/build/riscv-gnu-toolchain/build-gcc-newlib-stage2/riscv64-unknown-elf/rv32i/ilp32/libgcc/../../../../../riscv-gcc/libgcc/config/riscv/div.S:75
 800749c:	00050593          	mv	a1,a0
/scratch/jenkins/workspace/tpp-freedom-tools/tpp03--build-binary-packages--parameterized/obj/x86_64-linux-ubuntu14/build/riscv-gnu-toolchain/build-gcc-newlib-stage2/riscv64-unknown-elf/rv32i/ilp32/libgcc/../../../../../riscv-gcc/libgcc/config/riscv/div.S:76
 80074a0:	fff00513          	li	a0,-1
/scratch/jenkins/workspace/tpp-freedom-tools/tpp03--build-binary-packages--parameterized/obj/x86_64-linux-ubuntu14/build/riscv-gnu-toolchain/build-gcc-newlib-stage2/riscv64-unknown-elf/rv32i/ilp32/libgcc/../../../../../riscv-gcc/libgcc/config/riscv/div.S:77
 80074a4:	02060c63          	beqz	a2,80074dc <__udivsi3+0x44>
/scratch/jenkins/workspace/tpp-freedom-tools/tpp03--build-binary-packages--parameterized/obj/x86_64-linux-ubuntu14/build/riscv-gnu-toolchain/build-gcc-newlib-stage2/riscv64-unknown-elf/rv32i/ilp32/libgcc/../../../../../riscv-gcc/libgcc/config/riscv/div.S:78
 80074a8:	00100693          	li	a3,1
/scratch/jenkins/workspace/tpp-freedom-tools/tpp03--build-binary-packages--parameterized/obj/x86_64-linux-ubuntu14/build/riscv-gnu-toolchain/build-gcc-newlib-stage2/riscv64-unknown-elf/rv32i/ilp32/libgcc/../../../../../riscv-gcc/libgcc/config/riscv/div.S:79
 80074ac:	00b67a63          	bgeu	a2,a1,80074c0 <__udivsi3+0x28>
/scratch/jenkins/workspace/tpp-freedom-tools/tpp03--build-binary-packages--parameterized/obj/x86_64-linux-ubuntu14/build/riscv-gnu-toolchain/build-gcc-newlib-stage2/riscv64-unknown-elf/rv32i/ilp32/libgcc/../../../../../riscv-gcc/libgcc/config/riscv/div.S:81
 80074b0:	00c05863          	blez	a2,80074c0 <__udivsi3+0x28>
/scratch/jenkins/workspace/tpp-freedom-tools/tpp03--build-binary-packages--parameterized/obj/x86_64-linux-ubuntu14/build/riscv-gnu-toolchain/build-gcc-newlib-stage2/riscv64-unknown-elf/rv32i/ilp32/libgcc/../../../../../riscv-gcc/libgcc/config/riscv/div.S:82
 80074b4:	00161613          	slli	a2,a2,0x1
/scratch/jenkins/workspace/tpp-freedom-tools/tpp03--build-binary-packages--parameterized/obj/x86_64-linux-ubuntu14/build/riscv-gnu-toolchain/build-gcc-newlib-stage2/riscv64-unknown-elf/rv32i/ilp32/libgcc/../../../../../riscv-gcc/libgcc/config/riscv/div.S:83
 80074b8:	00169693          	slli	a3,a3,0x1
/scratch/jenkins/workspace/tpp-freedom-tools/tpp03--build-binary-packages--parameterized/obj/x86_64-linux-ubuntu14/build/riscv-gnu-toolchain/build-gcc-newlib-stage2/riscv64-unknown-elf/rv32i/ilp32/libgcc/../../../../../riscv-gcc/libgcc/config/riscv/div.S:84
 80074bc:	feb66ae3          	bltu	a2,a1,80074b0 <__udivsi3+0x18>
/scratch/jenkins/workspace/tpp-freedom-tools/tpp03--build-binary-packages--parameterized/obj/x86_64-linux-ubuntu14/build/riscv-gnu-toolchain/build-gcc-newlib-stage2/riscv64-unknown-elf/rv32i/ilp32/libgcc/../../../../../riscv-gcc/libgcc/config/riscv/div.S:86
 80074c0:	00000513          	li	a0,0
/scratch/jenkins/workspace/tpp-freedom-tools/tpp03--build-binary-packages--parameterized/obj/x86_64-linux-ubuntu14/build/riscv-gnu-toolchain/build-gcc-newlib-stage2/riscv64-unknown-elf/rv32i/ilp32/libgcc/../../../../../riscv-gcc/libgcc/config/riscv/div.S:88
 80074c4:	00c5e663          	bltu	a1,a2,80074d0 <__udivsi3+0x38>
/scratch/jenkins/workspace/tpp-freedom-tools/tpp03--build-binary-packages--parameterized/obj/x86_64-linux-ubuntu14/build/riscv-gnu-toolchain/build-gcc-newlib-stage2/riscv64-unknown-elf/rv32i/ilp32/libgcc/../../../../../riscv-gcc/libgcc/config/riscv/div.S:89
 80074c8:	40c585b3          	sub	a1,a1,a2
/scratch/jenkins/workspace/tpp-freedom-tools/tpp03--build-binary-packages--parameterized/obj/x86_64-linux-ubuntu14/build/riscv-gnu-toolchain/build-gcc-newlib-stage2/riscv64-unknown-elf/rv32i/ilp32/libgcc/../../../../../riscv-gcc/libgcc/config/riscv/div.S:90
 80074cc:	00d56533          	or	a0,a0,a3
/scratch/jenkins/workspace/tpp-freedom-tools/tpp03--build-binary-packages--parameterized/obj/x86_64-linux-ubuntu14/build/riscv-gnu-toolchain/build-gcc-newlib-stage2/riscv64-unknown-elf/rv32i/ilp32/libgcc/../../../../../riscv-gcc/libgcc/config/riscv/div.S:92
 80074d0:	0016d693          	srli	a3,a3,0x1
/scratch/jenkins/workspace/tpp-freedom-tools/tpp03--build-binary-packages--parameterized/obj/x86_64-linux-ubuntu14/build/riscv-gnu-toolchain/build-gcc-newlib-stage2/riscv64-unknown-elf/rv32i/ilp32/libgcc/../../../../../riscv-gcc/libgcc/config/riscv/div.S:93
 80074d4:	00165613          	srli	a2,a2,0x1
/scratch/jenkins/workspace/tpp-freedom-tools/tpp03--build-binary-packages--parameterized/obj/x86_64-linux-ubuntu14/build/riscv-gnu-toolchain/build-gcc-newlib-stage2/riscv64-unknown-elf/rv32i/ilp32/libgcc/../../../../../riscv-gcc/libgcc/config/riscv/div.S:94
 80074d8:	fe0696e3          	bnez	a3,80074c4 <__udivsi3+0x2c>
/scratch/jenkins/workspace/tpp-freedom-tools/tpp03--build-binary-packages--parameterized/obj/x86_64-linux-ubuntu14/build/riscv-gnu-toolchain/build-gcc-newlib-stage2/riscv64-unknown-elf/rv32i/ilp32/libgcc/../../../../../riscv-gcc/libgcc/config/riscv/div.S:96
 80074dc:	00008067          	ret

080074e0 <__umodsi3>:
/scratch/jenkins/workspace/tpp-freedom-tools/tpp03--build-binary-packages--parameterized/obj/x86_64-linux-ubuntu14/build/riscv-gnu-toolchain/build-gcc-newlib-stage2/riscv64-unknown-elf/rv32i/ilp32/libgcc/../../../../../riscv-gcc/libgcc/config/riscv/div.S:101
 80074e0:	00008293          	mv	t0,ra
/scratch/jenkins/workspace/tpp-freedom-tools/tpp03--build-binary-packages--parameterized/obj/x86_64-linux-ubuntu14/build/riscv-gnu-toolchain/build-gcc-newlib-stage2/riscv64-unknown-elf/rv32i/ilp32/libgcc/../../../../../riscv-gcc/libgcc/config/riscv/div.S:102
 80074e4:	fb5ff0ef          	jal	ra,8007498 <__udivsi3>
/scratch/jenkins/workspace/tpp-freedom-tools/tpp03--build-binary-packages--parameterized/obj/x86_64-linux-ubuntu14/build/riscv-gnu-toolchain/build-gcc-newlib-stage2/riscv64-unknown-elf/rv32i/ilp32/libgcc/../../../../../riscv-gcc/libgcc/config/riscv/div.S:103
 80074e8:	00058513          	mv	a0,a1
/scratch/jenkins/workspace/tpp-freedom-tools/tpp03--build-binary-packages--parameterized/obj/x86_64-linux-ubuntu14/build/riscv-gnu-toolchain/build-gcc-newlib-stage2/riscv64-unknown-elf/rv32i/ilp32/libgcc/../../../../../riscv-gcc/libgcc/config/riscv/div.S:104
 80074ec:	00028067          	jr	t0 # 800710c <memset+0xb4>
/scratch/jenkins/workspace/tpp-freedom-tools/tpp03--build-binary-packages--parameterized/obj/x86_64-linux-ubuntu14/build/riscv-gnu-toolchain/build-gcc-newlib-stage2/riscv64-unknown-elf/rv32i/ilp32/libgcc/../../../../../riscv-gcc/libgcc/config/riscv/div.S:109
 80074f0:	40a00533          	neg	a0,a0
/scratch/jenkins/workspace/tpp-freedom-tools/tpp03--build-binary-packages--parameterized/obj/x86_64-linux-ubuntu14/build/riscv-gnu-toolchain/build-gcc-newlib-stage2/riscv64-unknown-elf/rv32i/ilp32/libgcc/../../../../../riscv-gcc/libgcc/config/riscv/div.S:110
 80074f4:	0005d863          	bgez	a1,8007504 <__umodsi3+0x24>
/scratch/jenkins/workspace/tpp-freedom-tools/tpp03--build-binary-packages--parameterized/obj/x86_64-linux-ubuntu14/build/riscv-gnu-toolchain/build-gcc-newlib-stage2/riscv64-unknown-elf/rv32i/ilp32/libgcc/../../../../../riscv-gcc/libgcc/config/riscv/div.S:111
 80074f8:	40b005b3          	neg	a1,a1
/scratch/jenkins/workspace/tpp-freedom-tools/tpp03--build-binary-packages--parameterized/obj/x86_64-linux-ubuntu14/build/riscv-gnu-toolchain/build-gcc-newlib-stage2/riscv64-unknown-elf/rv32i/ilp32/libgcc/../../../../../riscv-gcc/libgcc/config/riscv/div.S:112
 80074fc:	f9dff06f          	j	8007498 <__udivsi3>
/scratch/jenkins/workspace/tpp-freedom-tools/tpp03--build-binary-packages--parameterized/obj/x86_64-linux-ubuntu14/build/riscv-gnu-toolchain/build-gcc-newlib-stage2/riscv64-unknown-elf/rv32i/ilp32/libgcc/../../../../../riscv-gcc/libgcc/config/riscv/div.S:114
 8007500:	40b005b3          	neg	a1,a1
/scratch/jenkins/workspace/tpp-freedom-tools/tpp03--build-binary-packages--parameterized/obj/x86_64-linux-ubuntu14/build/riscv-gnu-toolchain/build-gcc-newlib-stage2/riscv64-unknown-elf/rv32i/ilp32/libgcc/../../../../../riscv-gcc/libgcc/config/riscv/div.S:116
 8007504:	00008293          	mv	t0,ra
/scratch/jenkins/workspace/tpp-freedom-tools/tpp03--build-binary-packages--parameterized/obj/x86_64-linux-ubuntu14/build/riscv-gnu-toolchain/build-gcc-newlib-stage2/riscv64-unknown-elf/rv32i/ilp32/libgcc/../../../../../riscv-gcc/libgcc/config/riscv/div.S:117
 8007508:	f91ff0ef          	jal	ra,8007498 <__udivsi3>
/scratch/jenkins/workspace/tpp-freedom-tools/tpp03--build-binary-packages--parameterized/obj/x86_64-linux-ubuntu14/build/riscv-gnu-toolchain/build-gcc-newlib-stage2/riscv64-unknown-elf/rv32i/ilp32/libgcc/../../../../../riscv-gcc/libgcc/config/riscv/div.S:118
 800750c:	40a00533          	neg	a0,a0
/scratch/jenkins/workspace/tpp-freedom-tools/tpp03--build-binary-packages--parameterized/obj/x86_64-linux-ubuntu14/build/riscv-gnu-toolchain/build-gcc-newlib-stage2/riscv64-unknown-elf/rv32i/ilp32/libgcc/../../../../../riscv-gcc/libgcc/config/riscv/div.S:119
 8007510:	00028067          	jr	t0

08007514 <__modsi3>:
__modsi3():
/scratch/jenkins/workspace/tpp-freedom-tools/tpp03--build-binary-packages--parameterized/obj/x86_64-linux-ubuntu14/build/riscv-gnu-toolchain/build-gcc-newlib-stage2/riscv64-unknown-elf/rv32i/ilp32/libgcc/../../../../../riscv-gcc/libgcc/config/riscv/div.S:123
 8007514:	00008293          	mv	t0,ra
/scratch/jenkins/workspace/tpp-freedom-tools/tpp03--build-binary-packages--parameterized/obj/x86_64-linux-ubuntu14/build/riscv-gnu-toolchain/build-gcc-newlib-stage2/riscv64-unknown-elf/rv32i/ilp32/libgcc/../../../../../riscv-gcc/libgcc/config/riscv/div.S:124
 8007518:	0005ca63          	bltz	a1,800752c <__modsi3+0x18>
/scratch/jenkins/workspace/tpp-freedom-tools/tpp03--build-binary-packages--parameterized/obj/x86_64-linux-ubuntu14/build/riscv-gnu-toolchain/build-gcc-newlib-stage2/riscv64-unknown-elf/rv32i/ilp32/libgcc/../../../../../riscv-gcc/libgcc/config/riscv/div.S:125
 800751c:	00054c63          	bltz	a0,8007534 <__modsi3+0x20>
/scratch/jenkins/workspace/tpp-freedom-tools/tpp03--build-binary-packages--parameterized/obj/x86_64-linux-ubuntu14/build/riscv-gnu-toolchain/build-gcc-newlib-stage2/riscv64-unknown-elf/rv32i/ilp32/libgcc/../../../../../riscv-gcc/libgcc/config/riscv/div.S:127
 8007520:	f79ff0ef          	jal	ra,8007498 <__udivsi3>
/scratch/jenkins/workspace/tpp-freedom-tools/tpp03--build-binary-packages--parameterized/obj/x86_64-linux-ubuntu14/build/riscv-gnu-toolchain/build-gcc-newlib-stage2/riscv64-unknown-elf/rv32i/ilp32/libgcc/../../../../../riscv-gcc/libgcc/config/riscv/div.S:128
 8007524:	00058513          	mv	a0,a1
/scratch/jenkins/workspace/tpp-freedom-tools/tpp03--build-binary-packages--parameterized/obj/x86_64-linux-ubuntu14/build/riscv-gnu-toolchain/build-gcc-newlib-stage2/riscv64-unknown-elf/rv32i/ilp32/libgcc/../../../../../riscv-gcc/libgcc/config/riscv/div.S:129
 8007528:	00028067          	jr	t0
/scratch/jenkins/workspace/tpp-freedom-tools/tpp03--build-binary-packages--parameterized/obj/x86_64-linux-ubuntu14/build/riscv-gnu-toolchain/build-gcc-newlib-stage2/riscv64-unknown-elf/rv32i/ilp32/libgcc/../../../../../riscv-gcc/libgcc/config/riscv/div.S:131
 800752c:	40b005b3          	neg	a1,a1
/scratch/jenkins/workspace/tpp-freedom-tools/tpp03--build-binary-packages--parameterized/obj/x86_64-linux-ubuntu14/build/riscv-gnu-toolchain/build-gcc-newlib-stage2/riscv64-unknown-elf/rv32i/ilp32/libgcc/../../../../../riscv-gcc/libgcc/config/riscv/div.S:132
 8007530:	fe0558e3          	bgez	a0,8007520 <__modsi3+0xc>
/scratch/jenkins/workspace/tpp-freedom-tools/tpp03--build-binary-packages--parameterized/obj/x86_64-linux-ubuntu14/build/riscv-gnu-toolchain/build-gcc-newlib-stage2/riscv64-unknown-elf/rv32i/ilp32/libgcc/../../../../../riscv-gcc/libgcc/config/riscv/div.S:134
 8007534:	40a00533          	neg	a0,a0
/scratch/jenkins/workspace/tpp-freedom-tools/tpp03--build-binary-packages--parameterized/obj/x86_64-linux-ubuntu14/build/riscv-gnu-toolchain/build-gcc-newlib-stage2/riscv64-unknown-elf/rv32i/ilp32/libgcc/../../../../../riscv-gcc/libgcc/config/riscv/div.S:135
 8007538:	f61ff0ef          	jal	ra,8007498 <__udivsi3>
/scratch/jenkins/workspace/tpp-freedom-tools/tpp03--build-binary-packages--parameterized/obj/x86_64-linux-ubuntu14/build/riscv-gnu-toolchain/build-gcc-newlib-stage2/riscv64-unknown-elf/rv32i/ilp32/libgcc/../../../../../riscv-gcc/libgcc/config/riscv/div.S:136
 800753c:	40b00533          	neg	a0,a1
/scratch/jenkins/workspace/tpp-freedom-tools/tpp03--build-binary-packages--parameterized/obj/x86_64-linux-ubuntu14/build/riscv-gnu-toolchain/build-gcc-newlib-stage2/riscv64-unknown-elf/rv32i/ilp32/libgcc/../../../../../riscv-gcc/libgcc/config/riscv/div.S:137
 8007540:	00028067          	jr	t0
