
build/release/sys_shell.elf:     file format elf32-littleriscv
build/release/sys_shell.elf
architecture: riscv:rv32, flags 0x00000112:
EXEC_P, HAS_SYMS, D_PAGED
start address 0x08006200

Program Header:
    LOAD off    0x00000200 vaddr 0x08006200 paddr 0x08006200 align 2**12
         filesz 0x000006d0 memsz 0x00000ed0 flags rwx

Sections:
Idx Name              Size      VMA       LMA       File off  Algn  Flags
  0 .text             00000628  08006200  08006200  00000200  2**3  CONTENTS, ALLOC, LOAD, READONLY, CODE
  1 .rodata           000000a0  08006828  08006828  00000828  2**3  CONTENTS, ALLOC, LOAD, READONLY, DATA
  2 .data             00000008  080068c8  080068c8  000008c8  2**3  CONTENTS, ALLOC, LOAD, DATA
  3 .heap             00000800  080068d0  080068d0  000008d0  2**3  ALLOC
  4 .riscv.attributes 0000001c  00000000  00000000  000008d0  2**0  CONTENTS, READONLY
  5 .comment          00000028  00000000  00000000  000008ec  2**0  CONTENTS, READONLY
SYMBOL TABLE:
08006200 l    d  .text	00000000 .text
08006828 l    d  .rodata	00000000 .rodata
080068c8 l    d  .data	00000000 .data
080068d0 l    d  .heap	00000000 .heap
00000000 l    d  .riscv.attributes	00000000 .riscv.attributes
00000000 l    d  .comment	00000000 .comment
00000000 l    df *ABS*	00000000 servers.c
00000000 l    df *ABS*	00000000 sys_shell.c
00000000 l    df *ABS*	00000000 strlen.c
080068cc g     O .data	00000004 earth
00000800 g       *ABS*	00000000 __heap_size
080068c8 g     O .data	00000004 grass
08006544 g     F .text	000000dc memset
08006380 g     F .text	000001c4 main
08006200 g       .text	00000000 _enter
08006620 g     F .text	0000017c strcmp
08008000 g       *ABS*	00000000 __heap_end
0800623c g     F .text	00000144 parse_request
080068d0 g       .heap	00000000 __heap_start
08006210 g     F .text	0000002c exit
0800679c g     F .text	0000008c strlen



Disassembly of section .text:

08006200 <_enter>:
_enter():
 8006200:	00052503          	lw	a0,0(a0)
 8006204:	80002137          	lui	sp,0x80002
 8006208:	178000ef          	jal	ra,8006380 <main>
 800620c:	004000ef          	jal	ra,8006210 <exit>

08006210 <exit>:
exit():
 8006210:	fe010113          	addi	sp,sp,-32 # 80001fe0 <__heap_end+0x77ff9fe0>
 8006214:	00112e23          	sw	ra,28(sp)
 8006218:	00812c23          	sw	s0,24(sp)
 800621c:	02010413          	addi	s0,sp,32
 8006220:	fea42623          	sw	a0,-20(s0)
 8006224:	080077b7          	lui	a5,0x8007
 8006228:	8c87a783          	lw	a5,-1848(a5) # 80068c8 <grass>
 800622c:	0a47a783          	lw	a5,164(a5)
 8006230:	fec42503          	lw	a0,-20(s0)
 8006234:	000780e7          	jalr	a5
 8006238:	0000006f          	j	8006238 <exit+0x28>

0800623c <parse_request>:
parse_request():
 800623c:	fd010113          	addi	sp,sp,-48
 8006240:	02112623          	sw	ra,44(sp)
 8006244:	02812423          	sw	s0,40(sp)
 8006248:	03010413          	addi	s0,sp,48
 800624c:	fca42e23          	sw	a0,-36(s0)
 8006250:	fcb42c23          	sw	a1,-40(s0)
 8006254:	fe042623          	sw	zero,-20(s0)
 8006258:	fe042423          	sw	zero,-24(s0)
 800625c:	fd842783          	lw	a5,-40(s0)
 8006260:	00878793          	addi	a5,a5,8
 8006264:	20000613          	li	a2,512
 8006268:	00000593          	li	a1,0
 800626c:	00078513          	mv	a0,a5
 8006270:	2d4000ef          	jal	ra,8006544 <memset>
 8006274:	fe042223          	sw	zero,-28(s0)
 8006278:	0bc0006f          	j	8006334 <parse_request+0xf8>
 800627c:	fe442783          	lw	a5,-28(s0)
 8006280:	fdc42703          	lw	a4,-36(s0)
 8006284:	00f707b3          	add	a5,a4,a5
 8006288:	0007c703          	lbu	a4,0(a5)
 800628c:	02000793          	li	a5,32
 8006290:	04f70863          	beq	a4,a5,80062e0 <parse_request+0xa4>
 8006294:	fe442783          	lw	a5,-28(s0)
 8006298:	fdc42703          	lw	a4,-36(s0)
 800629c:	00f707b3          	add	a5,a4,a5
 80062a0:	0007c703          	lbu	a4,0(a5)
 80062a4:	fd842683          	lw	a3,-40(s0)
 80062a8:	fe842783          	lw	a5,-24(s0)
 80062ac:	00579793          	slli	a5,a5,0x5
 80062b0:	00f686b3          	add	a3,a3,a5
 80062b4:	fec42783          	lw	a5,-20(s0)
 80062b8:	00f687b3          	add	a5,a3,a5
 80062bc:	00e78423          	sb	a4,8(a5)
 80062c0:	fec42783          	lw	a5,-20(s0)
 80062c4:	00178793          	addi	a5,a5,1
 80062c8:	fef42623          	sw	a5,-20(s0)
 80062cc:	fec42703          	lw	a4,-20(s0)
 80062d0:	01f00793          	li	a5,31
 80062d4:	04e7da63          	bge	a5,a4,8006328 <parse_request+0xec>
 80062d8:	fff00793          	li	a5,-1
 80062dc:	0900006f          	j	800636c <parse_request+0x130>
 80062e0:	fec42783          	lw	a5,-20(s0)
 80062e4:	04078263          	beqz	a5,8006328 <parse_request+0xec>
 80062e8:	fd842703          	lw	a4,-40(s0)
 80062ec:	fe842783          	lw	a5,-24(s0)
 80062f0:	00579793          	slli	a5,a5,0x5
 80062f4:	00f70733          	add	a4,a4,a5
 80062f8:	fec42783          	lw	a5,-20(s0)
 80062fc:	00f707b3          	add	a5,a4,a5
 8006300:	00078423          	sb	zero,8(a5)
 8006304:	fe042623          	sw	zero,-20(s0)
 8006308:	fe842783          	lw	a5,-24(s0)
 800630c:	00178793          	addi	a5,a5,1
 8006310:	fef42423          	sw	a5,-24(s0)
 8006314:	fe842703          	lw	a4,-24(s0)
 8006318:	00f00793          	li	a5,15
 800631c:	00e7d663          	bge	a5,a4,8006328 <parse_request+0xec>
 8006320:	fff00793          	li	a5,-1
 8006324:	0480006f          	j	800636c <parse_request+0x130>
 8006328:	fe442783          	lw	a5,-28(s0)
 800632c:	00178793          	addi	a5,a5,1
 8006330:	fef42223          	sw	a5,-28(s0)
 8006334:	fdc42503          	lw	a0,-36(s0)
 8006338:	464000ef          	jal	ra,800679c <strlen>
 800633c:	00050713          	mv	a4,a0
 8006340:	fe442783          	lw	a5,-28(s0)
 8006344:	f2e7ece3          	bltu	a5,a4,800627c <parse_request+0x40>
 8006348:	fec42783          	lw	a5,-20(s0)
 800634c:	00078863          	beqz	a5,800635c <parse_request+0x120>
 8006350:	fe842783          	lw	a5,-24(s0)
 8006354:	00178793          	addi	a5,a5,1
 8006358:	0080006f          	j	8006360 <parse_request+0x124>
 800635c:	fe842783          	lw	a5,-24(s0)
 8006360:	fd842703          	lw	a4,-40(s0)
 8006364:	00f72223          	sw	a5,4(a4)
 8006368:	00000793          	li	a5,0
 800636c:	00078513          	mv	a0,a5
 8006370:	02c12083          	lw	ra,44(sp)
 8006374:	02812403          	lw	s0,40(sp)
 8006378:	03010113          	addi	sp,sp,48
 800637c:	00008067          	ret

08006380 <main>:
main():
 8006380:	ce010113          	addi	sp,sp,-800
 8006384:	30112e23          	sw	ra,796(sp)
 8006388:	30812c23          	sw	s0,792(sp)
 800638c:	32010413          	addi	s0,sp,800
 8006390:	080077b7          	lui	a5,0x8007
 8006394:	8cc7a783          	lw	a5,-1844(a5) # 80068cc <earth>
 8006398:	0447a703          	lw	a4,68(a5)
 800639c:	080077b7          	lui	a5,0x8007
 80063a0:	82878513          	addi	a0,a5,-2008 # 8006828 <strlen+0x8c>
 80063a4:	000700e7          	jalr	a4
 80063a8:	000067b7          	lui	a5,0x6
 80063ac:	46378793          	addi	a5,a5,1123 # 6463 <__heap_size+0x5c63>
 80063b0:	eef42823          	sw	a5,-272(s0)
 80063b4:	ef440793          	addi	a5,s0,-268
 80063b8:	0fc00713          	li	a4,252
 80063bc:	00070613          	mv	a2,a4
 80063c0:	00000593          	li	a1,0
 80063c4:	00078513          	mv	a0,a5
 80063c8:	17c000ef          	jal	ra,8006544 <memset>
 80063cc:	ef040713          	addi	a4,s0,-272
 80063d0:	080077b7          	lui	a5,0x8007
 80063d4:	84878593          	addi	a1,a5,-1976 # 8006848 <strlen+0xac>
 80063d8:	00070513          	mv	a0,a4
 80063dc:	244000ef          	jal	ra,8006620 <strcmp>
 80063e0:	00050793          	mv	a5,a0
 80063e4:	02079863          	bnez	a5,8006414 <main+0x94>
 80063e8:	00200793          	li	a5,2
 80063ec:	cef42223          	sw	a5,-796(s0)
 80063f0:	080077b7          	lui	a5,0x8007
 80063f4:	8c87a783          	lw	a5,-1848(a5) # 80068c8 <grass>
 80063f8:	0a87a703          	lw	a4,168(a5)
 80063fc:	ce440793          	addi	a5,s0,-796
 8006400:	20800613          	li	a2,520
 8006404:	00078593          	mv	a1,a5
 8006408:	00100513          	li	a0,1
 800640c:	000700e7          	jalr	a4
 8006410:	0e40006f          	j	80064f4 <main+0x174>
 8006414:	ce042223          	sw	zero,-796(s0)
 8006418:	ce440713          	addi	a4,s0,-796
 800641c:	ef040793          	addi	a5,s0,-272
 8006420:	00070593          	mv	a1,a4
 8006424:	00078513          	mv	a0,a5
 8006428:	e15ff0ef          	jal	ra,800623c <parse_request>
 800642c:	00050793          	mv	a5,a0
 8006430:	02078063          	beqz	a5,8006450 <main+0xd0>
 8006434:	080077b7          	lui	a5,0x8007
 8006438:	8cc7a783          	lw	a5,-1844(a5) # 80068cc <earth>
 800643c:	0387a703          	lw	a4,56(a5)
 8006440:	080077b7          	lui	a5,0x8007
 8006444:	85078513          	addi	a0,a5,-1968 # 8006850 <strlen+0xb4>
 8006448:	000700e7          	jalr	a4
 800644c:	0a80006f          	j	80064f4 <main+0x174>
 8006450:	080077b7          	lui	a5,0x8007
 8006454:	8c87a783          	lw	a5,-1848(a5) # 80068c8 <grass>
 8006458:	0a87a703          	lw	a4,168(a5)
 800645c:	ce440793          	addi	a5,s0,-796
 8006460:	20800613          	li	a2,520
 8006464:	00078593          	mv	a1,a5
 8006468:	00100513          	li	a0,1
 800646c:	000700e7          	jalr	a4
 8006470:	080077b7          	lui	a5,0x8007
 8006474:	8c87a783          	lw	a5,-1848(a5) # 80068c8 <grass>
 8006478:	0ac7a703          	lw	a4,172(a5)
 800647c:	eec40793          	addi	a5,s0,-276
 8006480:	00400613          	li	a2,4
 8006484:	00078593          	mv	a1,a5
 8006488:	00000513          	li	a0,0
 800648c:	000700e7          	jalr	a4
 8006490:	eec42783          	lw	a5,-276(s0)
 8006494:	02078063          	beqz	a5,80064b4 <main+0x134>
 8006498:	080077b7          	lui	a5,0x8007
 800649c:	8cc7a783          	lw	a5,-1844(a5) # 80068cc <earth>
 80064a0:	0387a703          	lw	a4,56(a5)
 80064a4:	080077b7          	lui	a5,0x8007
 80064a8:	88478513          	addi	a0,a5,-1916 # 8006884 <strlen+0xe8>
 80064ac:	000700e7          	jalr	a4
 80064b0:	0440006f          	j	80064f4 <main+0x174>
 80064b4:	ce842783          	lw	a5,-792(s0)
 80064b8:	fff78793          	addi	a5,a5,-1
 80064bc:	00579793          	slli	a5,a5,0x5
 80064c0:	ff040713          	addi	a4,s0,-16
 80064c4:	00f707b3          	add	a5,a4,a5
 80064c8:	cfc7c703          	lbu	a4,-772(a5)
 80064cc:	02600793          	li	a5,38
 80064d0:	02f70263          	beq	a4,a5,80064f4 <main+0x174>
 80064d4:	080077b7          	lui	a5,0x8007
 80064d8:	8c87a783          	lw	a5,-1848(a5) # 80068c8 <grass>
 80064dc:	0ac7a703          	lw	a4,172(a5)
 80064e0:	eec40793          	addi	a5,s0,-276
 80064e4:	00400613          	li	a2,4
 80064e8:	00078593          	mv	a1,a5
 80064ec:	00000513          	li	a0,0
 80064f0:	000700e7          	jalr	a4
 80064f4:	080077b7          	lui	a5,0x8007
 80064f8:	8cc7a783          	lw	a5,-1844(a5) # 80068cc <earth>
 80064fc:	0347a703          	lw	a4,52(a5)
 8006500:	080077b7          	lui	a5,0x8007
 8006504:	8c87a783          	lw	a5,-1848(a5) # 80068c8 <grass>
 8006508:	00478793          	addi	a5,a5,4
 800650c:	00078593          	mv	a1,a5
 8006510:	080077b7          	lui	a5,0x8007
 8006514:	8a878513          	addi	a0,a5,-1880 # 80068a8 <strlen+0x10c>
 8006518:	000700e7          	jalr	a4
 800651c:	080077b7          	lui	a5,0x8007
 8006520:	8cc7a783          	lw	a5,-1844(a5) # 80068cc <earth>
 8006524:	02c7a703          	lw	a4,44(a5)
 8006528:	ef040793          	addi	a5,s0,-272
 800652c:	10000593          	li	a1,256
 8006530:	00078513          	mv	a0,a5
 8006534:	000700e7          	jalr	a4
 8006538:	00050793          	mv	a5,a0
 800653c:	fa078ce3          	beqz	a5,80064f4 <main+0x174>
 8006540:	e8dff06f          	j	80063cc <main+0x4c>

08006544 <memset>:
memset():
 8006544:	00f00313          	li	t1,15
 8006548:	00050713          	mv	a4,a0
 800654c:	02c37e63          	bgeu	t1,a2,8006588 <memset+0x44>
 8006550:	00f77793          	andi	a5,a4,15
 8006554:	0a079063          	bnez	a5,80065f4 <memset+0xb0>
 8006558:	08059263          	bnez	a1,80065dc <memset+0x98>
 800655c:	ff067693          	andi	a3,a2,-16
 8006560:	00f67613          	andi	a2,a2,15
 8006564:	00e686b3          	add	a3,a3,a4
 8006568:	00b72023          	sw	a1,0(a4)
 800656c:	00b72223          	sw	a1,4(a4)
 8006570:	00b72423          	sw	a1,8(a4)
 8006574:	00b72623          	sw	a1,12(a4)
 8006578:	01070713          	addi	a4,a4,16
 800657c:	fed766e3          	bltu	a4,a3,8006568 <memset+0x24>
 8006580:	00061463          	bnez	a2,8006588 <memset+0x44>
 8006584:	00008067          	ret
 8006588:	40c306b3          	sub	a3,t1,a2
 800658c:	00269693          	slli	a3,a3,0x2
 8006590:	00000297          	auipc	t0,0x0
 8006594:	005686b3          	add	a3,a3,t0
 8006598:	00c68067          	jr	12(a3)
 800659c:	00b70723          	sb	a1,14(a4)
 80065a0:	00b706a3          	sb	a1,13(a4)
 80065a4:	00b70623          	sb	a1,12(a4)
 80065a8:	00b705a3          	sb	a1,11(a4)
 80065ac:	00b70523          	sb	a1,10(a4)
 80065b0:	00b704a3          	sb	a1,9(a4)
 80065b4:	00b70423          	sb	a1,8(a4)
 80065b8:	00b703a3          	sb	a1,7(a4)
 80065bc:	00b70323          	sb	a1,6(a4)
 80065c0:	00b702a3          	sb	a1,5(a4)
 80065c4:	00b70223          	sb	a1,4(a4)
 80065c8:	00b701a3          	sb	a1,3(a4)
 80065cc:	00b70123          	sb	a1,2(a4)
 80065d0:	00b700a3          	sb	a1,1(a4)
 80065d4:	00b70023          	sb	a1,0(a4)
 80065d8:	00008067          	ret
 80065dc:	0ff5f593          	andi	a1,a1,255
 80065e0:	00859693          	slli	a3,a1,0x8
 80065e4:	00d5e5b3          	or	a1,a1,a3
 80065e8:	01059693          	slli	a3,a1,0x10
 80065ec:	00d5e5b3          	or	a1,a1,a3
 80065f0:	f6dff06f          	j	800655c <memset+0x18>
 80065f4:	00279693          	slli	a3,a5,0x2
 80065f8:	00000297          	auipc	t0,0x0
 80065fc:	005686b3          	add	a3,a3,t0
 8006600:	00008293          	mv	t0,ra
 8006604:	fa0680e7          	jalr	-96(a3)
 8006608:	00028093          	mv	ra,t0
 800660c:	ff078793          	addi	a5,a5,-16
 8006610:	40f70733          	sub	a4,a4,a5
 8006614:	00f60633          	add	a2,a2,a5
 8006618:	f6c378e3          	bgeu	t1,a2,8006588 <memset+0x44>
 800661c:	f3dff06f          	j	8006558 <memset+0x14>

08006620 <strcmp>:
strcmp():
 8006620:	00b56733          	or	a4,a0,a1
 8006624:	fff00393          	li	t2,-1
 8006628:	00377713          	andi	a4,a4,3
 800662c:	10071063          	bnez	a4,800672c <strcmp+0x10c>
 8006630:	7f7f87b7          	lui	a5,0x7f7f8
 8006634:	f7f78793          	addi	a5,a5,-129 # 7f7f7f7f <__heap_end+0x777eff7f>
 8006638:	00052603          	lw	a2,0(a0)
 800663c:	0005a683          	lw	a3,0(a1)
 8006640:	00f672b3          	and	t0,a2,a5
 8006644:	00f66333          	or	t1,a2,a5
 8006648:	00f282b3          	add	t0,t0,a5
 800664c:	0062e2b3          	or	t0,t0,t1
 8006650:	10729263          	bne	t0,t2,8006754 <strcmp+0x134>
 8006654:	08d61663          	bne	a2,a3,80066e0 <strcmp+0xc0>
 8006658:	00452603          	lw	a2,4(a0)
 800665c:	0045a683          	lw	a3,4(a1)
 8006660:	00f672b3          	and	t0,a2,a5
 8006664:	00f66333          	or	t1,a2,a5
 8006668:	00f282b3          	add	t0,t0,a5
 800666c:	0062e2b3          	or	t0,t0,t1
 8006670:	0c729e63          	bne	t0,t2,800674c <strcmp+0x12c>
 8006674:	06d61663          	bne	a2,a3,80066e0 <strcmp+0xc0>
 8006678:	00852603          	lw	a2,8(a0)
 800667c:	0085a683          	lw	a3,8(a1)
 8006680:	00f672b3          	and	t0,a2,a5
 8006684:	00f66333          	or	t1,a2,a5
 8006688:	00f282b3          	add	t0,t0,a5
 800668c:	0062e2b3          	or	t0,t0,t1
 8006690:	0c729863          	bne	t0,t2,8006760 <strcmp+0x140>
 8006694:	04d61663          	bne	a2,a3,80066e0 <strcmp+0xc0>
 8006698:	00c52603          	lw	a2,12(a0)
 800669c:	00c5a683          	lw	a3,12(a1)
 80066a0:	00f672b3          	and	t0,a2,a5
 80066a4:	00f66333          	or	t1,a2,a5
 80066a8:	00f282b3          	add	t0,t0,a5
 80066ac:	0062e2b3          	or	t0,t0,t1
 80066b0:	0c729263          	bne	t0,t2,8006774 <strcmp+0x154>
 80066b4:	02d61663          	bne	a2,a3,80066e0 <strcmp+0xc0>
 80066b8:	01052603          	lw	a2,16(a0)
 80066bc:	0105a683          	lw	a3,16(a1)
 80066c0:	00f672b3          	and	t0,a2,a5
 80066c4:	00f66333          	or	t1,a2,a5
 80066c8:	00f282b3          	add	t0,t0,a5
 80066cc:	0062e2b3          	or	t0,t0,t1
 80066d0:	0a729c63          	bne	t0,t2,8006788 <strcmp+0x168>
 80066d4:	01450513          	addi	a0,a0,20
 80066d8:	01458593          	addi	a1,a1,20
 80066dc:	f4d60ee3          	beq	a2,a3,8006638 <strcmp+0x18>
 80066e0:	01061713          	slli	a4,a2,0x10
 80066e4:	01069793          	slli	a5,a3,0x10
 80066e8:	00f71e63          	bne	a4,a5,8006704 <strcmp+0xe4>
 80066ec:	01065713          	srli	a4,a2,0x10
 80066f0:	0106d793          	srli	a5,a3,0x10
 80066f4:	40f70533          	sub	a0,a4,a5
 80066f8:	0ff57593          	andi	a1,a0,255
 80066fc:	02059063          	bnez	a1,800671c <strcmp+0xfc>
 8006700:	00008067          	ret
 8006704:	01075713          	srli	a4,a4,0x10
 8006708:	0107d793          	srli	a5,a5,0x10
 800670c:	40f70533          	sub	a0,a4,a5
 8006710:	0ff57593          	andi	a1,a0,255
 8006714:	00059463          	bnez	a1,800671c <strcmp+0xfc>
 8006718:	00008067          	ret
 800671c:	0ff77713          	andi	a4,a4,255
 8006720:	0ff7f793          	andi	a5,a5,255
 8006724:	40f70533          	sub	a0,a4,a5
 8006728:	00008067          	ret
 800672c:	00054603          	lbu	a2,0(a0)
 8006730:	0005c683          	lbu	a3,0(a1)
 8006734:	00150513          	addi	a0,a0,1
 8006738:	00158593          	addi	a1,a1,1
 800673c:	00d61463          	bne	a2,a3,8006744 <strcmp+0x124>
 8006740:	fe0616e3          	bnez	a2,800672c <strcmp+0x10c>
 8006744:	40d60533          	sub	a0,a2,a3
 8006748:	00008067          	ret
 800674c:	00450513          	addi	a0,a0,4
 8006750:	00458593          	addi	a1,a1,4
 8006754:	fcd61ce3          	bne	a2,a3,800672c <strcmp+0x10c>
 8006758:	00000513          	li	a0,0
 800675c:	00008067          	ret
 8006760:	00850513          	addi	a0,a0,8
 8006764:	00858593          	addi	a1,a1,8
 8006768:	fcd612e3          	bne	a2,a3,800672c <strcmp+0x10c>
 800676c:	00000513          	li	a0,0
 8006770:	00008067          	ret
 8006774:	00c50513          	addi	a0,a0,12
 8006778:	00c58593          	addi	a1,a1,12
 800677c:	fad618e3          	bne	a2,a3,800672c <strcmp+0x10c>
 8006780:	00000513          	li	a0,0
 8006784:	00008067          	ret
 8006788:	01050513          	addi	a0,a0,16
 800678c:	01058593          	addi	a1,a1,16
 8006790:	f8d61ee3          	bne	a2,a3,800672c <strcmp+0x10c>
 8006794:	00000513          	li	a0,0
 8006798:	00008067          	ret

0800679c <strlen>:
strlen():
 800679c:	00357793          	andi	a5,a0,3
 80067a0:	00050713          	mv	a4,a0
 80067a4:	04079c63          	bnez	a5,80067fc <strlen+0x60>
 80067a8:	7f7f86b7          	lui	a3,0x7f7f8
 80067ac:	f7f68693          	addi	a3,a3,-129 # 7f7f7f7f <__heap_end+0x777eff7f>
 80067b0:	fff00593          	li	a1,-1
 80067b4:	00470713          	addi	a4,a4,4
 80067b8:	ffc72603          	lw	a2,-4(a4)
 80067bc:	00d677b3          	and	a5,a2,a3
 80067c0:	00d787b3          	add	a5,a5,a3
 80067c4:	00c7e7b3          	or	a5,a5,a2
 80067c8:	00d7e7b3          	or	a5,a5,a3
 80067cc:	feb784e3          	beq	a5,a1,80067b4 <strlen+0x18>
 80067d0:	ffc74683          	lbu	a3,-4(a4)
 80067d4:	40a707b3          	sub	a5,a4,a0
 80067d8:	ffd74603          	lbu	a2,-3(a4)
 80067dc:	ffe74503          	lbu	a0,-2(a4)
 80067e0:	04068063          	beqz	a3,8006820 <strlen+0x84>
 80067e4:	02060a63          	beqz	a2,8006818 <strlen+0x7c>
 80067e8:	00a03533          	snez	a0,a0
 80067ec:	00f50533          	add	a0,a0,a5
 80067f0:	ffe50513          	addi	a0,a0,-2
 80067f4:	00008067          	ret
 80067f8:	fa0688e3          	beqz	a3,80067a8 <strlen+0xc>
 80067fc:	00074783          	lbu	a5,0(a4)
 8006800:	00170713          	addi	a4,a4,1
 8006804:	00377693          	andi	a3,a4,3
 8006808:	fe0798e3          	bnez	a5,80067f8 <strlen+0x5c>
 800680c:	40a70733          	sub	a4,a4,a0
 8006810:	fff70513          	addi	a0,a4,-1
 8006814:	00008067          	ret
 8006818:	ffd78513          	addi	a0,a5,-3
 800681c:	00008067          	ret
 8006820:	ffc78513          	addi	a0,a5,-4
 8006824:	00008067          	ret
